
ATmega32_DRIVERS.elf:     file format elf32-avr

Sections:
Idx Name          Size      VMA       LMA       File off  Algn
  0 .text         000034d2  00000000  00000000  00000094  2**1
                  CONTENTS, ALLOC, LOAD, READONLY, CODE
  1 .data         00000024  00800060  000034d2  00003566  2**0
                  CONTENTS, ALLOC, LOAD, DATA
  2 .bss          00000010  00800084  00800084  0000358a  2**0
                  ALLOC
  3 .stab         00002bb0  00000000  00000000  0000358c  2**2
                  CONTENTS, READONLY, DEBUGGING
  4 .stabstr      00000af3  00000000  00000000  0000613c  2**0
                  CONTENTS, READONLY, DEBUGGING
  5 .comment      00000012  00000000  00000000  00006c2f  2**0
                  CONTENTS, READONLY
  6 .note.gnu.avr.deviceinfo 0000003c  00000000  00000000  00006c44  2**2
                  CONTENTS, READONLY, OCTETS
  7 .debug_aranges 000000c0  00000000  00000000  00006c80  2**3
                  CONTENTS, READONLY, DEBUGGING, OCTETS
  8 .debug_info   00000606  00000000  00000000  00006d40  2**0
                  CONTENTS, READONLY, DEBUGGING, OCTETS
  9 .debug_abbrev 0000055f  00000000  00000000  00007346  2**0
                  CONTENTS, READONLY, DEBUGGING, OCTETS
 10 .debug_line   0000039b  00000000  00000000  000078a5  2**0
                  CONTENTS, READONLY, DEBUGGING, OCTETS
 11 .debug_str    00000211  00000000  00000000  00007c40  2**0
                  CONTENTS, READONLY, DEBUGGING, OCTETS
 12 .debug_line_str 00000053  00000000  00000000  00007e51  2**0
                  CONTENTS, READONLY, DEBUGGING, OCTETS

Disassembly of section .text:

00000000 <__vectors>:
       0:	0c 94 2a 00 	jmp	0x54	; 0x54 <__ctors_end>
       4:	0c 94 47 00 	jmp	0x8e	; 0x8e <__bad_interrupt>
       8:	0c 94 47 00 	jmp	0x8e	; 0x8e <__bad_interrupt>
       c:	0c 94 47 00 	jmp	0x8e	; 0x8e <__bad_interrupt>
      10:	0c 94 47 00 	jmp	0x8e	; 0x8e <__bad_interrupt>
      14:	0c 94 47 00 	jmp	0x8e	; 0x8e <__bad_interrupt>
      18:	0c 94 47 00 	jmp	0x8e	; 0x8e <__bad_interrupt>
      1c:	0c 94 47 00 	jmp	0x8e	; 0x8e <__bad_interrupt>
      20:	0c 94 47 00 	jmp	0x8e	; 0x8e <__bad_interrupt>
      24:	0c 94 47 00 	jmp	0x8e	; 0x8e <__bad_interrupt>
      28:	0c 94 47 00 	jmp	0x8e	; 0x8e <__bad_interrupt>
      2c:	0c 94 47 00 	jmp	0x8e	; 0x8e <__bad_interrupt>
      30:	0c 94 47 00 	jmp	0x8e	; 0x8e <__bad_interrupt>
      34:	0c 94 47 00 	jmp	0x8e	; 0x8e <__bad_interrupt>
      38:	0c 94 47 00 	jmp	0x8e	; 0x8e <__bad_interrupt>
      3c:	0c 94 47 00 	jmp	0x8e	; 0x8e <__bad_interrupt>
      40:	0c 94 47 00 	jmp	0x8e	; 0x8e <__bad_interrupt>
      44:	0c 94 47 00 	jmp	0x8e	; 0x8e <__bad_interrupt>
      48:	0c 94 47 00 	jmp	0x8e	; 0x8e <__bad_interrupt>
      4c:	0c 94 47 00 	jmp	0x8e	; 0x8e <__bad_interrupt>
      50:	0c 94 47 00 	jmp	0x8e	; 0x8e <__bad_interrupt>

00000054 <__ctors_end>:
      54:	11 24       	eor	r1, r1
      56:	1f be       	out	0x3f, r1	; 63
      58:	cf e5       	ldi	r28, 0x5F	; 95
      5a:	d4 e0       	ldi	r29, 0x04	; 4
      5c:	de bf       	out	0x3e, r29	; 62
      5e:	cd bf       	out	0x3d, r28	; 61

00000060 <__do_copy_data>:
      60:	10 e0       	ldi	r17, 0x00	; 0

00000062 <.Loc.1>:
      62:	a0 e6       	ldi	r26, 0x60	; 96

00000064 <.Loc.2>:
      64:	b0 e0       	ldi	r27, 0x00	; 0

00000066 <.Loc.3>:
      66:	e2 ed       	ldi	r30, 0xD2	; 210

00000068 <.Loc.4>:
      68:	f4 e3       	ldi	r31, 0x34	; 52

0000006a <.Loc.5>:
      6a:	02 c0       	rjmp	.+4      	; 0x70 <.L__do_copy_data_start>

0000006c <.L__do_copy_data_loop>:
      6c:	05 90       	lpm	r0, Z+

0000006e <.Loc.7>:
      6e:	0d 92       	st	X+, r0

00000070 <.L__do_copy_data_start>:
      70:	a4 38       	cpi	r26, 0x84	; 132

00000072 <.Loc.9>:
      72:	b1 07       	cpc	r27, r17

00000074 <.Loc.10>:
      74:	d9 f7       	brne	.-10     	; 0x6c <.L__do_copy_data_loop>

00000076 <__do_clear_bss>:
      76:	20 e0       	ldi	r18, 0x00	; 0

00000078 <.Loc.1>:
      78:	a4 e8       	ldi	r26, 0x84	; 132

0000007a <.Loc.2>:
      7a:	b0 e0       	ldi	r27, 0x00	; 0

0000007c <.Loc.3>:
      7c:	01 c0       	rjmp	.+2      	; 0x80 <.Loc.5>

0000007e <.Loc.4>:
      7e:	1d 92       	st	X+, r1

00000080 <.Loc.5>:
      80:	a4 39       	cpi	r26, 0x94	; 148

00000082 <.Loc.6>:
      82:	b2 07       	cpc	r27, r18

00000084 <.Loc.7>:
      84:	e1 f7       	brne	.-8      	; 0x7e <.Loc.4>

00000086 <L0^A>:
      86:	0e 94 54 18 	call	0x30a8	; 0x30a8 <main>
      8a:	0c 94 67 1a 	jmp	0x34ce	; 0x34ce <_exit>

0000008e <__bad_interrupt>:
      8e:	0c 94 00 00 	jmp	0	; 0x0 <__vectors>

00000092 <UART_vidInit>:
      92:	cf 93       	push	r28
      94:	df 93       	push	r29
      96:	cd b7       	in	r28, 0x3d	; 61
      98:	de b7       	in	r29, 0x3e	; 62

0000009a <.LM1>:
      9a:	8a e2       	ldi	r24, 0x2A	; 42
      9c:	90 e0       	ldi	r25, 0x00	; 0
      9e:	fc 01       	movw	r30, r24
      a0:	20 81       	ld	r18, Z
      a2:	8a e2       	ldi	r24, 0x2A	; 42
      a4:	90 e0       	ldi	r25, 0x00	; 0
      a6:	20 61       	ori	r18, 0x10	; 16
      a8:	fc 01       	movw	r30, r24
      aa:	20 83       	st	Z, r18

000000ac <.LM2>:
      ac:	8a e2       	ldi	r24, 0x2A	; 42
      ae:	90 e0       	ldi	r25, 0x00	; 0
      b0:	fc 01       	movw	r30, r24
      b2:	20 81       	ld	r18, Z
      b4:	8a e2       	ldi	r24, 0x2A	; 42
      b6:	90 e0       	ldi	r25, 0x00	; 0
      b8:	28 60       	ori	r18, 0x08	; 8
      ba:	fc 01       	movw	r30, r24
      bc:	20 83       	st	Z, r18

000000be <.LM3>:
      be:	80 e4       	ldi	r24, 0x40	; 64
      c0:	90 e0       	ldi	r25, 0x00	; 0
      c2:	fc 01       	movw	r30, r24
      c4:	20 81       	ld	r18, Z
      c6:	80 e4       	ldi	r24, 0x40	; 64
      c8:	90 e0       	ldi	r25, 0x00	; 0
      ca:	2d 7f       	andi	r18, 0xFD	; 253
      cc:	fc 01       	movw	r30, r24
      ce:	20 83       	st	Z, r18

000000d0 <.LM4>:
      d0:	80 e4       	ldi	r24, 0x40	; 64
      d2:	90 e0       	ldi	r25, 0x00	; 0
      d4:	fc 01       	movw	r30, r24
      d6:	20 81       	ld	r18, Z
      d8:	80 e4       	ldi	r24, 0x40	; 64
      da:	90 e0       	ldi	r25, 0x00	; 0
      dc:	2b 7f       	andi	r18, 0xFB	; 251
      de:	fc 01       	movw	r30, r24
      e0:	20 83       	st	Z, r18

000000e2 <.LM5>:
      e2:	8a e2       	ldi	r24, 0x2A	; 42
      e4:	90 e0       	ldi	r25, 0x00	; 0
      e6:	fc 01       	movw	r30, r24
      e8:	20 81       	ld	r18, Z
      ea:	8a e2       	ldi	r24, 0x2A	; 42
      ec:	90 e0       	ldi	r25, 0x00	; 0
      ee:	2b 7f       	andi	r18, 0xFB	; 251
      f0:	fc 01       	movw	r30, r24
      f2:	20 83       	st	Z, r18

000000f4 <.LM6>:
      f4:	80 e4       	ldi	r24, 0x40	; 64
      f6:	90 e0       	ldi	r25, 0x00	; 0
      f8:	fc 01       	movw	r30, r24
      fa:	20 81       	ld	r18, Z
      fc:	80 e4       	ldi	r24, 0x40	; 64
      fe:	90 e0       	ldi	r25, 0x00	; 0
     100:	2f 7e       	andi	r18, 0xEF	; 239
     102:	fc 01       	movw	r30, r24
     104:	20 83       	st	Z, r18

00000106 <.LM7>:
     106:	80 e4       	ldi	r24, 0x40	; 64
     108:	90 e0       	ldi	r25, 0x00	; 0
     10a:	fc 01       	movw	r30, r24
     10c:	20 81       	ld	r18, Z
     10e:	80 e4       	ldi	r24, 0x40	; 64
     110:	90 e0       	ldi	r25, 0x00	; 0
     112:	2f 7d       	andi	r18, 0xDF	; 223
     114:	fc 01       	movw	r30, r24
     116:	20 83       	st	Z, r18

00000118 <.LM8>:
     118:	80 e4       	ldi	r24, 0x40	; 64
     11a:	90 e0       	ldi	r25, 0x00	; 0
     11c:	fc 01       	movw	r30, r24
     11e:	20 81       	ld	r18, Z
     120:	80 e4       	ldi	r24, 0x40	; 64
     122:	90 e0       	ldi	r25, 0x00	; 0
     124:	27 7f       	andi	r18, 0xF7	; 247
     126:	fc 01       	movw	r30, r24
     128:	20 83       	st	Z, r18

0000012a <.LM9>:
     12a:	80 e4       	ldi	r24, 0x40	; 64
     12c:	90 e0       	ldi	r25, 0x00	; 0

0000012e <.LM10>:
     12e:	fc 01       	movw	r30, r24
     130:	10 82       	st	Z, r1

00000132 <.LM11>:
     132:	89 e2       	ldi	r24, 0x29	; 41
     134:	90 e0       	ldi	r25, 0x00	; 0

00000136 <.LM12>:
     136:	23 e3       	ldi	r18, 0x33	; 51
     138:	fc 01       	movw	r30, r24
     13a:	20 83       	st	Z, r18

0000013c <.LM13>:
     13c:	00 00       	nop
     13e:	df 91       	pop	r29
     140:	cf 91       	pop	r28
     142:	08 95       	ret

00000144 <UART_vidSendByte>:
     144:	cf 93       	push	r28
     146:	df 93       	push	r29
     148:	0f 92       	push	r0
     14a:	cd b7       	in	r28, 0x3d	; 61
     14c:	de b7       	in	r29, 0x3e	; 62
     14e:	89 83       	std	Y+1, r24	; 0x01

00000150 <.LM15>:
	...

00000152 <.L3>:
     152:	8b e2       	ldi	r24, 0x2B	; 43
     154:	90 e0       	ldi	r25, 0x00	; 0
     156:	fc 01       	movw	r30, r24
     158:	80 81       	ld	r24, Z
     15a:	82 95       	swap	r24
     15c:	86 95       	lsr	r24
     15e:	87 70       	andi	r24, 0x07	; 7
     160:	88 2f       	mov	r24, r24
     162:	90 e0       	ldi	r25, 0x00	; 0
     164:	81 70       	andi	r24, 0x01	; 1
     166:	99 27       	eor	r25, r25

00000168 <.LM17>:
     168:	00 97       	sbiw	r24, 0x00	; 0
     16a:	99 f3       	breq	.-26     	; 0x152 <.L3>

0000016c <.LM18>:
     16c:	8c e2       	ldi	r24, 0x2C	; 44
     16e:	90 e0       	ldi	r25, 0x00	; 0

00000170 <.LM19>:
     170:	29 81       	ldd	r18, Y+1	; 0x01
     172:	fc 01       	movw	r30, r24
     174:	20 83       	st	Z, r18

00000176 <.LM20>:
     176:	00 00       	nop
     178:	0f 90       	pop	r0
     17a:	df 91       	pop	r29
     17c:	cf 91       	pop	r28
     17e:	08 95       	ret

00000180 <UART_u8ReceiveByte>:
     180:	cf 93       	push	r28
     182:	df 93       	push	r29
     184:	cd b7       	in	r28, 0x3d	; 61
     186:	de b7       	in	r29, 0x3e	; 62

00000188 <.LM22>:
	...

0000018a <.L5>:
     18a:	8b e2       	ldi	r24, 0x2B	; 43
     18c:	90 e0       	ldi	r25, 0x00	; 0
     18e:	fc 01       	movw	r30, r24
     190:	80 81       	ld	r24, Z
     192:	88 1f       	adc	r24, r24
     194:	88 27       	eor	r24, r24
     196:	88 1f       	adc	r24, r24
     198:	88 2f       	mov	r24, r24
     19a:	90 e0       	ldi	r25, 0x00	; 0
     19c:	81 70       	andi	r24, 0x01	; 1
     19e:	99 27       	eor	r25, r25

000001a0 <.LM24>:
     1a0:	00 97       	sbiw	r24, 0x00	; 0
     1a2:	99 f3       	breq	.-26     	; 0x18a <.L5>

000001a4 <.LM25>:
     1a4:	8c e2       	ldi	r24, 0x2C	; 44
     1a6:	90 e0       	ldi	r25, 0x00	; 0
     1a8:	fc 01       	movw	r30, r24
     1aa:	80 81       	ld	r24, Z

000001ac <.LM26>:
     1ac:	df 91       	pop	r29
     1ae:	cf 91       	pop	r28
     1b0:	08 95       	ret

000001b2 <UART_u8GetReceivedByte>:
     1b2:	cf 93       	push	r28
     1b4:	df 93       	push	r29
     1b6:	cd b7       	in	r28, 0x3d	; 61
     1b8:	de b7       	in	r29, 0x3e	; 62

000001ba <.LM28>:
     1ba:	8c e2       	ldi	r24, 0x2C	; 44
     1bc:	90 e0       	ldi	r25, 0x00	; 0
     1be:	fc 01       	movw	r30, r24
     1c0:	80 81       	ld	r24, Z

000001c2 <.LM29>:
     1c2:	df 91       	pop	r29
     1c4:	cf 91       	pop	r28
     1c6:	08 95       	ret

000001c8 <UART_vidSendString>:
     1c8:	cf 93       	push	r28
     1ca:	df 93       	push	r29
     1cc:	00 d0       	rcall	.+0      	; 0x1ce <L0^A>

000001ce <L0^A>:
     1ce:	cd b7       	in	r28, 0x3d	; 61
     1d0:	de b7       	in	r29, 0x3e	; 62
     1d2:	9a 83       	std	Y+2, r25	; 0x02
     1d4:	89 83       	std	Y+1, r24	; 0x01

000001d6 <.L10>:
     1d6:	89 81       	ldd	r24, Y+1	; 0x01
     1d8:	9a 81       	ldd	r25, Y+2	; 0x02
     1da:	fc 01       	movw	r30, r24
     1dc:	80 81       	ld	r24, Z
     1de:	0e 94 a2 00 	call	0x144	; 0x144 <UART_vidSendByte>

000001e2 <.LM32>:
     1e2:	89 81       	ldd	r24, Y+1	; 0x01
     1e4:	9a 81       	ldd	r25, Y+2	; 0x02
     1e6:	9c 01       	movw	r18, r24
     1e8:	2f 5f       	subi	r18, 0xFF	; 255
     1ea:	3f 4f       	sbci	r19, 0xFF	; 255
     1ec:	3a 83       	std	Y+2, r19	; 0x02
     1ee:	29 83       	std	Y+1, r18	; 0x01

000001f0 <.LM33>:
     1f0:	fc 01       	movw	r30, r24
     1f2:	80 81       	ld	r24, Z

000001f4 <.LM34>:
     1f4:	88 23       	and	r24, r24
     1f6:	79 f7       	brne	.-34     	; 0x1d6 <.L10>

000001f8 <.LM35>:
     1f8:	00 00       	nop
     1fa:	00 00       	nop
     1fc:	0f 90       	pop	r0
     1fe:	0f 90       	pop	r0
     200:	df 91       	pop	r29
     202:	cf 91       	pop	r28
     204:	08 95       	ret

00000206 <UART_vidSendLine>:
     206:	cf 93       	push	r28
     208:	df 93       	push	r29
     20a:	cd b7       	in	r28, 0x3d	; 61
     20c:	de b7       	in	r29, 0x3e	; 62

0000020e <.LM37>:
     20e:	88 e7       	ldi	r24, 0x78	; 120
     210:	90 e0       	ldi	r25, 0x00	; 0
     212:	0e 94 e4 00 	call	0x1c8	; 0x1c8 <UART_vidSendString>

00000216 <.LM38>:
     216:	00 00       	nop
     218:	df 91       	pop	r29
     21a:	cf 91       	pop	r28
     21c:	08 95       	ret

0000021e <TIMER0_Init>:
     21e:	cf 93       	push	r28
     220:	df 93       	push	r29
     222:	cd b7       	in	r28, 0x3d	; 61
     224:	de b7       	in	r29, 0x3e	; 62

00000226 <.LM1>:
     226:	83 e5       	ldi	r24, 0x53	; 83
     228:	90 e0       	ldi	r25, 0x00	; 0
     22a:	fc 01       	movw	r30, r24
     22c:	20 81       	ld	r18, Z
     22e:	83 e5       	ldi	r24, 0x53	; 83
     230:	90 e0       	ldi	r25, 0x00	; 0
     232:	2f 7b       	andi	r18, 0xBF	; 191
     234:	fc 01       	movw	r30, r24
     236:	20 83       	st	Z, r18

00000238 <.LM2>:
     238:	83 e5       	ldi	r24, 0x53	; 83
     23a:	90 e0       	ldi	r25, 0x00	; 0
     23c:	fc 01       	movw	r30, r24
     23e:	20 81       	ld	r18, Z
     240:	83 e5       	ldi	r24, 0x53	; 83
     242:	90 e0       	ldi	r25, 0x00	; 0
     244:	27 7f       	andi	r18, 0xF7	; 247
     246:	fc 01       	movw	r30, r24
     248:	20 83       	st	Z, r18

0000024a <.LM3>:
     24a:	83 e5       	ldi	r24, 0x53	; 83
     24c:	90 e0       	ldi	r25, 0x00	; 0
     24e:	fc 01       	movw	r30, r24
     250:	20 81       	ld	r18, Z
     252:	83 e5       	ldi	r24, 0x53	; 83
     254:	90 e0       	ldi	r25, 0x00	; 0
     256:	2e 7f       	andi	r18, 0xFE	; 254
     258:	fc 01       	movw	r30, r24
     25a:	20 83       	st	Z, r18

0000025c <.LM4>:
     25c:	83 e5       	ldi	r24, 0x53	; 83
     25e:	90 e0       	ldi	r25, 0x00	; 0
     260:	fc 01       	movw	r30, r24
     262:	20 81       	ld	r18, Z
     264:	83 e5       	ldi	r24, 0x53	; 83
     266:	90 e0       	ldi	r25, 0x00	; 0
     268:	22 60       	ori	r18, 0x02	; 2
     26a:	fc 01       	movw	r30, r24
     26c:	20 83       	st	Z, r18

0000026e <.LM5>:
     26e:	83 e5       	ldi	r24, 0x53	; 83
     270:	90 e0       	ldi	r25, 0x00	; 0
     272:	fc 01       	movw	r30, r24
     274:	20 81       	ld	r18, Z
     276:	83 e5       	ldi	r24, 0x53	; 83
     278:	90 e0       	ldi	r25, 0x00	; 0
     27a:	2b 7f       	andi	r18, 0xFB	; 251
     27c:	fc 01       	movw	r30, r24
     27e:	20 83       	st	Z, r18

00000280 <.LM6>:
     280:	00 00       	nop
     282:	df 91       	pop	r29
     284:	cf 91       	pop	r28
     286:	08 95       	ret

00000288 <TIMER0_DisableTimer0>:
     288:	cf 93       	push	r28
     28a:	df 93       	push	r29
     28c:	cd b7       	in	r28, 0x3d	; 61
     28e:	de b7       	in	r29, 0x3e	; 62

00000290 <.LM8>:
     290:	83 e5       	ldi	r24, 0x53	; 83
     292:	90 e0       	ldi	r25, 0x00	; 0
     294:	fc 01       	movw	r30, r24
     296:	20 81       	ld	r18, Z
     298:	83 e5       	ldi	r24, 0x53	; 83
     29a:	90 e0       	ldi	r25, 0x00	; 0
     29c:	2f 7e       	andi	r18, 0xEF	; 239
     29e:	fc 01       	movw	r30, r24
     2a0:	20 83       	st	Z, r18

000002a2 <.LM9>:
     2a2:	83 e5       	ldi	r24, 0x53	; 83
     2a4:	90 e0       	ldi	r25, 0x00	; 0
     2a6:	fc 01       	movw	r30, r24
     2a8:	20 81       	ld	r18, Z
     2aa:	83 e5       	ldi	r24, 0x53	; 83
     2ac:	90 e0       	ldi	r25, 0x00	; 0
     2ae:	2f 7d       	andi	r18, 0xDF	; 223
     2b0:	fc 01       	movw	r30, r24
     2b2:	20 83       	st	Z, r18

000002b4 <.LM10>:
     2b4:	00 00       	nop
     2b6:	df 91       	pop	r29
     2b8:	cf 91       	pop	r28
     2ba:	08 95       	ret

000002bc <TIMER0_SetPreloadValue>:
     2bc:	cf 93       	push	r28
     2be:	df 93       	push	r29
     2c0:	0f 92       	push	r0
     2c2:	cd b7       	in	r28, 0x3d	; 61
     2c4:	de b7       	in	r29, 0x3e	; 62
     2c6:	89 83       	std	Y+1, r24	; 0x01

000002c8 <.LM12>:
     2c8:	82 e5       	ldi	r24, 0x52	; 82
     2ca:	90 e0       	ldi	r25, 0x00	; 0

000002cc <.LM13>:
     2cc:	29 81       	ldd	r18, Y+1	; 0x01
     2ce:	fc 01       	movw	r30, r24
     2d0:	20 83       	st	Z, r18

000002d2 <.LM14>:
     2d2:	00 00       	nop
     2d4:	0f 90       	pop	r0
     2d6:	df 91       	pop	r29
     2d8:	cf 91       	pop	r28
     2da:	08 95       	ret

000002dc <TIMER0_SetOCMatchValue>:
     2dc:	cf 93       	push	r28
     2de:	df 93       	push	r29
     2e0:	0f 92       	push	r0
     2e2:	cd b7       	in	r28, 0x3d	; 61
     2e4:	de b7       	in	r29, 0x3e	; 62
     2e6:	89 83       	std	Y+1, r24	; 0x01

000002e8 <.LM16>:
     2e8:	8c e5       	ldi	r24, 0x5C	; 92
     2ea:	90 e0       	ldi	r25, 0x00	; 0

000002ec <.LM17>:
     2ec:	29 81       	ldd	r18, Y+1	; 0x01
     2ee:	fc 01       	movw	r30, r24
     2f0:	20 83       	st	Z, r18

000002f2 <.LM18>:
     2f2:	00 00       	nop
     2f4:	0f 90       	pop	r0
     2f6:	df 91       	pop	r29
     2f8:	cf 91       	pop	r28
     2fa:	08 95       	ret

000002fc <TIMER0_EnableInterrupt>:
     2fc:	cf 93       	push	r28
     2fe:	df 93       	push	r29
     300:	0f 92       	push	r0
     302:	cd b7       	in	r28, 0x3d	; 61
     304:	de b7       	in	r29, 0x3e	; 62
     306:	89 83       	std	Y+1, r24	; 0x01

00000308 <.LM20>:
     308:	89 81       	ldd	r24, Y+1	; 0x01
     30a:	88 23       	and	r24, r24
     30c:	51 f4       	brne	.+20     	; 0x322 <.L6>

0000030e <.LM21>:
     30e:	89 e5       	ldi	r24, 0x59	; 89
     310:	90 e0       	ldi	r25, 0x00	; 0
     312:	fc 01       	movw	r30, r24
     314:	20 81       	ld	r18, Z
     316:	89 e5       	ldi	r24, 0x59	; 89
     318:	90 e0       	ldi	r25, 0x00	; 0
     31a:	21 60       	ori	r18, 0x01	; 1
     31c:	fc 01       	movw	r30, r24
     31e:	20 83       	st	Z, r18

00000320 <.LM22>:
     320:	0c c0       	rjmp	.+24     	; 0x33a <.L8>

00000322 <.L6>:
     322:	89 81       	ldd	r24, Y+1	; 0x01
     324:	81 30       	cpi	r24, 0x01	; 1
     326:	49 f4       	brne	.+18     	; 0x33a <.L8>

00000328 <.LM24>:
     328:	89 e5       	ldi	r24, 0x59	; 89
     32a:	90 e0       	ldi	r25, 0x00	; 0
     32c:	fc 01       	movw	r30, r24
     32e:	20 81       	ld	r18, Z
     330:	89 e5       	ldi	r24, 0x59	; 89
     332:	90 e0       	ldi	r25, 0x00	; 0
     334:	22 60       	ori	r18, 0x02	; 2
     336:	fc 01       	movw	r30, r24
     338:	20 83       	st	Z, r18

0000033a <.L8>:
     33a:	00 00       	nop
     33c:	0f 90       	pop	r0
     33e:	df 91       	pop	r29
     340:	cf 91       	pop	r28
     342:	08 95       	ret

00000344 <TIMER0_DisableInterrupt>:
     344:	cf 93       	push	r28
     346:	df 93       	push	r29
     348:	0f 92       	push	r0
     34a:	cd b7       	in	r28, 0x3d	; 61
     34c:	de b7       	in	r29, 0x3e	; 62
     34e:	89 83       	std	Y+1, r24	; 0x01

00000350 <.LM27>:
     350:	89 81       	ldd	r24, Y+1	; 0x01
     352:	88 23       	and	r24, r24
     354:	51 f4       	brne	.+20     	; 0x36a <.L10>

00000356 <.LM28>:
     356:	89 e5       	ldi	r24, 0x59	; 89
     358:	90 e0       	ldi	r25, 0x00	; 0
     35a:	fc 01       	movw	r30, r24
     35c:	20 81       	ld	r18, Z
     35e:	89 e5       	ldi	r24, 0x59	; 89
     360:	90 e0       	ldi	r25, 0x00	; 0
     362:	2e 7f       	andi	r18, 0xFE	; 254
     364:	fc 01       	movw	r30, r24
     366:	20 83       	st	Z, r18

00000368 <.LM29>:
     368:	0c c0       	rjmp	.+24     	; 0x382 <.L12>

0000036a <.L10>:
     36a:	89 81       	ldd	r24, Y+1	; 0x01
     36c:	81 30       	cpi	r24, 0x01	; 1
     36e:	49 f4       	brne	.+18     	; 0x382 <.L12>

00000370 <.LM31>:
     370:	89 e5       	ldi	r24, 0x59	; 89
     372:	90 e0       	ldi	r25, 0x00	; 0
     374:	fc 01       	movw	r30, r24
     376:	20 81       	ld	r18, Z
     378:	89 e5       	ldi	r24, 0x59	; 89
     37a:	90 e0       	ldi	r25, 0x00	; 0
     37c:	2d 7f       	andi	r18, 0xFD	; 253
     37e:	fc 01       	movw	r30, r24
     380:	20 83       	st	Z, r18

00000382 <.L12>:
     382:	00 00       	nop
     384:	0f 90       	pop	r0
     386:	df 91       	pop	r29
     388:	cf 91       	pop	r28
     38a:	08 95       	ret

0000038c <TIMER0_SetBusyWait_OVFMode>:
     38c:	0f 93       	push	r16
     38e:	1f 93       	push	r17
     390:	cf 93       	push	r28
     392:	df 93       	push	r29
     394:	cd b7       	in	r28, 0x3d	; 61
     396:	de b7       	in	r29, 0x3e	; 62
     398:	2a 97       	sbiw	r28, 0x0a	; 10
     39a:	0f b6       	in	r0, 0x3f	; 63
     39c:	f8 94       	cli
     39e:	de bf       	out	0x3e, r29	; 62
     3a0:	0f be       	out	0x3f, r0	; 63
     3a2:	cd bf       	out	0x3d, r28	; 61
     3a4:	9e 83       	std	Y+6, r25	; 0x06
     3a6:	8d 83       	std	Y+5, r24	; 0x05

000003a8 <.LM34>:
     3a8:	86 e0       	ldi	r24, 0x06	; 6
     3aa:	0e 94 5e 01 	call	0x2bc	; 0x2bc <TIMER0_SetPreloadValue>

000003ae <.LM35>:
     3ae:	8d 81       	ldd	r24, Y+5	; 0x05
     3b0:	9e 81       	ldd	r25, Y+6	; 0x06
     3b2:	ac 01       	movw	r20, r24
     3b4:	60 e0       	ldi	r22, 0x00	; 0
     3b6:	70 e0       	ldi	r23, 0x00	; 0

000003b8 <.LM36>:
     3b8:	88 ee       	ldi	r24, 0xE8	; 232
     3ba:	93 e0       	ldi	r25, 0x03	; 3
     3bc:	dc 01       	movw	r26, r24
     3be:	9a 01       	movw	r18, r20
     3c0:	ab 01       	movw	r20, r22
     3c2:	0e 94 80 18 	call	0x3100	; 0x3100 <__muluhisi3>
     3c6:	6f 83       	std	Y+7, r22	; 0x07
     3c8:	78 87       	std	Y+8, r23	; 0x08
     3ca:	89 87       	std	Y+9, r24	; 0x09
     3cc:	9a 87       	std	Y+10, r25	; 0x0a

000003ce <.LM37>:
     3ce:	0a ef       	ldi	r16, 0xFA	; 250
     3d0:	10 e0       	ldi	r17, 0x00	; 0
     3d2:	20 e0       	ldi	r18, 0x00	; 0
     3d4:	30 e0       	ldi	r19, 0x00	; 0
     3d6:	6f 81       	ldd	r22, Y+7	; 0x07
     3d8:	78 85       	ldd	r23, Y+8	; 0x08
     3da:	89 85       	ldd	r24, Y+9	; 0x09
     3dc:	9a 85       	ldd	r25, Y+10	; 0x0a
     3de:	a9 01       	movw	r20, r18
     3e0:	98 01       	movw	r18, r16
     3e2:	0e 94 5e 18 	call	0x30bc	; 0x30bc <__udivmodsi4>
     3e6:	da 01       	movw	r26, r20
     3e8:	c9 01       	movw	r24, r18

000003ea <.LM38>:
     3ea:	9c 83       	std	Y+4, r25	; 0x04
     3ec:	8b 83       	std	Y+3, r24	; 0x03

000003ee <.LM39>:
     3ee:	1a 82       	std	Y+2, r1	; 0x02
     3f0:	19 82       	std	Y+1, r1	; 0x01

000003f2 <.LM40>:
     3f2:	1c c0       	rjmp	.+56     	; 0x42c <.L14>

000003f4 <.L16>:
	...

000003f6 <.L15>:
     3f6:	88 e5       	ldi	r24, 0x58	; 88
     3f8:	90 e0       	ldi	r25, 0x00	; 0
     3fa:	fc 01       	movw	r30, r24
     3fc:	80 81       	ld	r24, Z
     3fe:	88 2f       	mov	r24, r24
     400:	90 e0       	ldi	r25, 0x00	; 0
     402:	81 70       	andi	r24, 0x01	; 1
     404:	99 27       	eor	r25, r25

00000406 <.LM43>:
     406:	00 97       	sbiw	r24, 0x00	; 0
     408:	b1 f3       	breq	.-20     	; 0x3f6 <.L15>

0000040a <.LM44>:
     40a:	88 e5       	ldi	r24, 0x58	; 88
     40c:	90 e0       	ldi	r25, 0x00	; 0
     40e:	fc 01       	movw	r30, r24
     410:	20 81       	ld	r18, Z
     412:	88 e5       	ldi	r24, 0x58	; 88
     414:	90 e0       	ldi	r25, 0x00	; 0
     416:	21 60       	ori	r18, 0x01	; 1
     418:	fc 01       	movw	r30, r24
     41a:	20 83       	st	Z, r18

0000041c <.LM45>:
     41c:	89 81       	ldd	r24, Y+1	; 0x01
     41e:	9a 81       	ldd	r25, Y+2	; 0x02
     420:	01 96       	adiw	r24, 0x01	; 1
     422:	9a 83       	std	Y+2, r25	; 0x02
     424:	89 83       	std	Y+1, r24	; 0x01

00000426 <.LM46>:
     426:	86 e0       	ldi	r24, 0x06	; 6
     428:	0e 94 5e 01 	call	0x2bc	; 0x2bc <TIMER0_SetPreloadValue>

0000042c <.L14>:
     42c:	29 81       	ldd	r18, Y+1	; 0x01
     42e:	3a 81       	ldd	r19, Y+2	; 0x02
     430:	8b 81       	ldd	r24, Y+3	; 0x03
     432:	9c 81       	ldd	r25, Y+4	; 0x04
     434:	28 17       	cp	r18, r24
     436:	39 07       	cpc	r19, r25
     438:	e8 f2       	brcs	.-70     	; 0x3f4 <.L16>

0000043a <.LM48>:
     43a:	00 00       	nop
     43c:	00 00       	nop
     43e:	2a 96       	adiw	r28, 0x0a	; 10
     440:	0f b6       	in	r0, 0x3f	; 63
     442:	f8 94       	cli
     444:	de bf       	out	0x3e, r29	; 62
     446:	0f be       	out	0x3f, r0	; 63
     448:	cd bf       	out	0x3d, r28	; 61
     44a:	df 91       	pop	r29
     44c:	cf 91       	pop	r28
     44e:	1f 91       	pop	r17
     450:	0f 91       	pop	r16
     452:	08 95       	ret

00000454 <TIMER0_SetBusyWait_OCMode>:
     454:	0f 93       	push	r16
     456:	1f 93       	push	r17
     458:	cf 93       	push	r28
     45a:	df 93       	push	r29
     45c:	cd b7       	in	r28, 0x3d	; 61
     45e:	de b7       	in	r29, 0x3e	; 62
     460:	2a 97       	sbiw	r28, 0x0a	; 10
     462:	0f b6       	in	r0, 0x3f	; 63
     464:	f8 94       	cli
     466:	de bf       	out	0x3e, r29	; 62
     468:	0f be       	out	0x3f, r0	; 63
     46a:	cd bf       	out	0x3d, r28	; 61
     46c:	9e 83       	std	Y+6, r25	; 0x06
     46e:	8d 83       	std	Y+5, r24	; 0x05

00000470 <.LM50>:
     470:	8a ef       	ldi	r24, 0xFA	; 250
     472:	0e 94 6e 01 	call	0x2dc	; 0x2dc <TIMER0_SetOCMatchValue>

00000476 <.LM51>:
     476:	8d 81       	ldd	r24, Y+5	; 0x05
     478:	9e 81       	ldd	r25, Y+6	; 0x06
     47a:	ac 01       	movw	r20, r24
     47c:	60 e0       	ldi	r22, 0x00	; 0
     47e:	70 e0       	ldi	r23, 0x00	; 0

00000480 <.LM52>:
     480:	88 ee       	ldi	r24, 0xE8	; 232
     482:	93 e0       	ldi	r25, 0x03	; 3
     484:	dc 01       	movw	r26, r24
     486:	9a 01       	movw	r18, r20
     488:	ab 01       	movw	r20, r22
     48a:	0e 94 80 18 	call	0x3100	; 0x3100 <__muluhisi3>
     48e:	6f 83       	std	Y+7, r22	; 0x07
     490:	78 87       	std	Y+8, r23	; 0x08
     492:	89 87       	std	Y+9, r24	; 0x09
     494:	9a 87       	std	Y+10, r25	; 0x0a

00000496 <.LM53>:
     496:	0a ef       	ldi	r16, 0xFA	; 250
     498:	10 e0       	ldi	r17, 0x00	; 0
     49a:	20 e0       	ldi	r18, 0x00	; 0
     49c:	30 e0       	ldi	r19, 0x00	; 0
     49e:	6f 81       	ldd	r22, Y+7	; 0x07
     4a0:	78 85       	ldd	r23, Y+8	; 0x08
     4a2:	89 85       	ldd	r24, Y+9	; 0x09
     4a4:	9a 85       	ldd	r25, Y+10	; 0x0a
     4a6:	a9 01       	movw	r20, r18
     4a8:	98 01       	movw	r18, r16
     4aa:	0e 94 5e 18 	call	0x30bc	; 0x30bc <__udivmodsi4>
     4ae:	da 01       	movw	r26, r20
     4b0:	c9 01       	movw	r24, r18

000004b2 <.LM54>:
     4b2:	9c 83       	std	Y+4, r25	; 0x04
     4b4:	8b 83       	std	Y+3, r24	; 0x03

000004b6 <.LM55>:
     4b6:	1a 82       	std	Y+2, r1	; 0x02
     4b8:	19 82       	std	Y+1, r1	; 0x01

000004ba <.LM56>:
     4ba:	1a c0       	rjmp	.+52     	; 0x4f0 <.L18>

000004bc <.L20>:
	...

000004be <.L19>:
     4be:	88 e5       	ldi	r24, 0x58	; 88
     4c0:	90 e0       	ldi	r25, 0x00	; 0
     4c2:	fc 01       	movw	r30, r24
     4c4:	80 81       	ld	r24, Z
     4c6:	86 95       	lsr	r24
     4c8:	88 2f       	mov	r24, r24
     4ca:	90 e0       	ldi	r25, 0x00	; 0
     4cc:	81 70       	andi	r24, 0x01	; 1
     4ce:	99 27       	eor	r25, r25

000004d0 <.LM59>:
     4d0:	00 97       	sbiw	r24, 0x00	; 0
     4d2:	a9 f3       	breq	.-22     	; 0x4be <.L19>

000004d4 <.LM60>:
     4d4:	88 e5       	ldi	r24, 0x58	; 88
     4d6:	90 e0       	ldi	r25, 0x00	; 0
     4d8:	fc 01       	movw	r30, r24
     4da:	20 81       	ld	r18, Z
     4dc:	88 e5       	ldi	r24, 0x58	; 88
     4de:	90 e0       	ldi	r25, 0x00	; 0
     4e0:	22 60       	ori	r18, 0x02	; 2
     4e2:	fc 01       	movw	r30, r24
     4e4:	20 83       	st	Z, r18

000004e6 <.LM61>:
     4e6:	89 81       	ldd	r24, Y+1	; 0x01
     4e8:	9a 81       	ldd	r25, Y+2	; 0x02
     4ea:	01 96       	adiw	r24, 0x01	; 1
     4ec:	9a 83       	std	Y+2, r25	; 0x02
     4ee:	89 83       	std	Y+1, r24	; 0x01

000004f0 <.L18>:
     4f0:	29 81       	ldd	r18, Y+1	; 0x01
     4f2:	3a 81       	ldd	r19, Y+2	; 0x02
     4f4:	8b 81       	ldd	r24, Y+3	; 0x03
     4f6:	9c 81       	ldd	r25, Y+4	; 0x04
     4f8:	28 17       	cp	r18, r24
     4fa:	39 07       	cpc	r19, r25
     4fc:	f9 f2       	breq	.-66     	; 0x4bc <.L20>
     4fe:	f0 f2       	brcs	.-68     	; 0x4bc <.L20>

00000500 <.LM63>:
     500:	00 00       	nop
     502:	00 00       	nop
     504:	2a 96       	adiw	r28, 0x0a	; 10
     506:	0f b6       	in	r0, 0x3f	; 63
     508:	f8 94       	cli
     50a:	de bf       	out	0x3e, r29	; 62
     50c:	0f be       	out	0x3f, r0	; 63
     50e:	cd bf       	out	0x3d, r28	; 61
     510:	df 91       	pop	r29
     512:	cf 91       	pop	r28
     514:	1f 91       	pop	r17
     516:	0f 91       	pop	r16
     518:	08 95       	ret

0000051a <SPI_InitMaster>:
     51a:	cf 93       	push	r28
     51c:	df 93       	push	r29
     51e:	cd b7       	in	r28, 0x3d	; 61
     520:	de b7       	in	r29, 0x3e	; 62

00000522 <.LM1>:
     522:	41 e0       	ldi	r20, 0x01	; 1
     524:	65 e0       	ldi	r22, 0x05	; 5
     526:	81 e0       	ldi	r24, 0x01	; 1
     528:	0e 94 63 04 	call	0x8c6	; 0x8c6 <GPIO_SetPinDirection>

0000052c <.LM2>:
     52c:	40 e0       	ldi	r20, 0x00	; 0
     52e:	66 e0       	ldi	r22, 0x06	; 6
     530:	81 e0       	ldi	r24, 0x01	; 1
     532:	0e 94 63 04 	call	0x8c6	; 0x8c6 <GPIO_SetPinDirection>

00000536 <.LM3>:
     536:	41 e0       	ldi	r20, 0x01	; 1
     538:	67 e0       	ldi	r22, 0x07	; 7
     53a:	81 e0       	ldi	r24, 0x01	; 1
     53c:	0e 94 63 04 	call	0x8c6	; 0x8c6 <GPIO_SetPinDirection>

00000540 <.LM4>:
     540:	41 e0       	ldi	r20, 0x01	; 1
     542:	64 e0       	ldi	r22, 0x04	; 4
     544:	81 e0       	ldi	r24, 0x01	; 1
     546:	0e 94 63 04 	call	0x8c6	; 0x8c6 <GPIO_SetPinDirection>

0000054a <.LM5>:
     54a:	8d e2       	ldi	r24, 0x2D	; 45
     54c:	90 e0       	ldi	r25, 0x00	; 0
     54e:	fc 01       	movw	r30, r24
     550:	20 81       	ld	r18, Z
     552:	8d e2       	ldi	r24, 0x2D	; 45
     554:	90 e0       	ldi	r25, 0x00	; 0
     556:	20 61       	ori	r18, 0x10	; 16
     558:	fc 01       	movw	r30, r24
     55a:	20 83       	st	Z, r18

0000055c <.LM6>:
     55c:	8d e2       	ldi	r24, 0x2D	; 45
     55e:	90 e0       	ldi	r25, 0x00	; 0
     560:	fc 01       	movw	r30, r24
     562:	20 81       	ld	r18, Z
     564:	8d e2       	ldi	r24, 0x2D	; 45
     566:	90 e0       	ldi	r25, 0x00	; 0
     568:	2f 7d       	andi	r18, 0xDF	; 223
     56a:	fc 01       	movw	r30, r24
     56c:	20 83       	st	Z, r18

0000056e <.LM7>:
     56e:	8d e2       	ldi	r24, 0x2D	; 45
     570:	90 e0       	ldi	r25, 0x00	; 0
     572:	fc 01       	movw	r30, r24
     574:	20 81       	ld	r18, Z
     576:	8d e2       	ldi	r24, 0x2D	; 45
     578:	90 e0       	ldi	r25, 0x00	; 0
     57a:	27 7f       	andi	r18, 0xF7	; 247
     57c:	fc 01       	movw	r30, r24
     57e:	20 83       	st	Z, r18

00000580 <.LM8>:
     580:	8d e2       	ldi	r24, 0x2D	; 45
     582:	90 e0       	ldi	r25, 0x00	; 0
     584:	fc 01       	movw	r30, r24
     586:	20 81       	ld	r18, Z
     588:	8d e2       	ldi	r24, 0x2D	; 45
     58a:	90 e0       	ldi	r25, 0x00	; 0
     58c:	2b 7f       	andi	r18, 0xFB	; 251
     58e:	fc 01       	movw	r30, r24
     590:	20 83       	st	Z, r18

00000592 <.LM9>:
     592:	8d e2       	ldi	r24, 0x2D	; 45
     594:	90 e0       	ldi	r25, 0x00	; 0
     596:	fc 01       	movw	r30, r24
     598:	20 81       	ld	r18, Z
     59a:	8d e2       	ldi	r24, 0x2D	; 45
     59c:	90 e0       	ldi	r25, 0x00	; 0
     59e:	2e 7f       	andi	r18, 0xFE	; 254
     5a0:	fc 01       	movw	r30, r24
     5a2:	20 83       	st	Z, r18

000005a4 <.LM10>:
     5a4:	8d e2       	ldi	r24, 0x2D	; 45
     5a6:	90 e0       	ldi	r25, 0x00	; 0
     5a8:	fc 01       	movw	r30, r24
     5aa:	20 81       	ld	r18, Z
     5ac:	8d e2       	ldi	r24, 0x2D	; 45
     5ae:	90 e0       	ldi	r25, 0x00	; 0
     5b0:	2d 7f       	andi	r18, 0xFD	; 253
     5b2:	fc 01       	movw	r30, r24
     5b4:	20 83       	st	Z, r18

000005b6 <.LM11>:
     5b6:	8d e2       	ldi	r24, 0x2D	; 45
     5b8:	90 e0       	ldi	r25, 0x00	; 0
     5ba:	fc 01       	movw	r30, r24
     5bc:	20 81       	ld	r18, Z
     5be:	8d e2       	ldi	r24, 0x2D	; 45
     5c0:	90 e0       	ldi	r25, 0x00	; 0
     5c2:	2e 7f       	andi	r18, 0xFE	; 254
     5c4:	fc 01       	movw	r30, r24
     5c6:	20 83       	st	Z, r18

000005c8 <.LM12>:
     5c8:	8d e2       	ldi	r24, 0x2D	; 45
     5ca:	90 e0       	ldi	r25, 0x00	; 0
     5cc:	fc 01       	movw	r30, r24
     5ce:	20 81       	ld	r18, Z
     5d0:	8d e2       	ldi	r24, 0x2D	; 45
     5d2:	90 e0       	ldi	r25, 0x00	; 0
     5d4:	20 64       	ori	r18, 0x40	; 64
     5d6:	fc 01       	movw	r30, r24
     5d8:	20 83       	st	Z, r18

000005da <.LM13>:
     5da:	00 00       	nop
     5dc:	df 91       	pop	r29
     5de:	cf 91       	pop	r28
     5e0:	08 95       	ret

000005e2 <SPI_InitSlave>:
     5e2:	cf 93       	push	r28
     5e4:	df 93       	push	r29
     5e6:	cd b7       	in	r28, 0x3d	; 61
     5e8:	de b7       	in	r29, 0x3e	; 62

000005ea <.LM15>:
     5ea:	41 e0       	ldi	r20, 0x01	; 1
     5ec:	65 e0       	ldi	r22, 0x05	; 5
     5ee:	81 e0       	ldi	r24, 0x01	; 1
     5f0:	0e 94 63 04 	call	0x8c6	; 0x8c6 <GPIO_SetPinDirection>

000005f4 <.LM16>:
     5f4:	40 e0       	ldi	r20, 0x00	; 0
     5f6:	66 e0       	ldi	r22, 0x06	; 6
     5f8:	81 e0       	ldi	r24, 0x01	; 1
     5fa:	0e 94 63 04 	call	0x8c6	; 0x8c6 <GPIO_SetPinDirection>

000005fe <.LM17>:
     5fe:	41 e0       	ldi	r20, 0x01	; 1
     600:	67 e0       	ldi	r22, 0x07	; 7
     602:	81 e0       	ldi	r24, 0x01	; 1
     604:	0e 94 63 04 	call	0x8c6	; 0x8c6 <GPIO_SetPinDirection>

00000608 <.LM18>:
     608:	41 e0       	ldi	r20, 0x01	; 1
     60a:	64 e0       	ldi	r22, 0x04	; 4
     60c:	81 e0       	ldi	r24, 0x01	; 1
     60e:	0e 94 63 04 	call	0x8c6	; 0x8c6 <GPIO_SetPinDirection>

00000612 <.LM19>:
     612:	8d e2       	ldi	r24, 0x2D	; 45
     614:	90 e0       	ldi	r25, 0x00	; 0
     616:	fc 01       	movw	r30, r24
     618:	20 81       	ld	r18, Z
     61a:	8d e2       	ldi	r24, 0x2D	; 45
     61c:	90 e0       	ldi	r25, 0x00	; 0
     61e:	2f 7e       	andi	r18, 0xEF	; 239
     620:	fc 01       	movw	r30, r24
     622:	20 83       	st	Z, r18

00000624 <.LM20>:
     624:	8d e2       	ldi	r24, 0x2D	; 45
     626:	90 e0       	ldi	r25, 0x00	; 0
     628:	fc 01       	movw	r30, r24
     62a:	20 81       	ld	r18, Z
     62c:	8d e2       	ldi	r24, 0x2D	; 45
     62e:	90 e0       	ldi	r25, 0x00	; 0
     630:	2f 7d       	andi	r18, 0xDF	; 223
     632:	fc 01       	movw	r30, r24
     634:	20 83       	st	Z, r18

00000636 <.LM21>:
     636:	8d e2       	ldi	r24, 0x2D	; 45
     638:	90 e0       	ldi	r25, 0x00	; 0
     63a:	fc 01       	movw	r30, r24
     63c:	20 81       	ld	r18, Z
     63e:	8d e2       	ldi	r24, 0x2D	; 45
     640:	90 e0       	ldi	r25, 0x00	; 0
     642:	27 7f       	andi	r18, 0xF7	; 247
     644:	fc 01       	movw	r30, r24
     646:	20 83       	st	Z, r18

00000648 <.LM22>:
     648:	8d e2       	ldi	r24, 0x2D	; 45
     64a:	90 e0       	ldi	r25, 0x00	; 0
     64c:	fc 01       	movw	r30, r24
     64e:	20 81       	ld	r18, Z
     650:	8d e2       	ldi	r24, 0x2D	; 45
     652:	90 e0       	ldi	r25, 0x00	; 0
     654:	2b 7f       	andi	r18, 0xFB	; 251
     656:	fc 01       	movw	r30, r24
     658:	20 83       	st	Z, r18

0000065a <.LM23>:
     65a:	8d e2       	ldi	r24, 0x2D	; 45
     65c:	90 e0       	ldi	r25, 0x00	; 0
     65e:	fc 01       	movw	r30, r24
     660:	20 81       	ld	r18, Z
     662:	8d e2       	ldi	r24, 0x2D	; 45
     664:	90 e0       	ldi	r25, 0x00	; 0
     666:	2e 7f       	andi	r18, 0xFE	; 254
     668:	fc 01       	movw	r30, r24
     66a:	20 83       	st	Z, r18

0000066c <.LM24>:
     66c:	8d e2       	ldi	r24, 0x2D	; 45
     66e:	90 e0       	ldi	r25, 0x00	; 0
     670:	fc 01       	movw	r30, r24
     672:	20 81       	ld	r18, Z
     674:	8d e2       	ldi	r24, 0x2D	; 45
     676:	90 e0       	ldi	r25, 0x00	; 0
     678:	2d 7f       	andi	r18, 0xFD	; 253
     67a:	fc 01       	movw	r30, r24
     67c:	20 83       	st	Z, r18

0000067e <.LM25>:
     67e:	8d e2       	ldi	r24, 0x2D	; 45
     680:	90 e0       	ldi	r25, 0x00	; 0
     682:	fc 01       	movw	r30, r24
     684:	20 81       	ld	r18, Z
     686:	8d e2       	ldi	r24, 0x2D	; 45
     688:	90 e0       	ldi	r25, 0x00	; 0
     68a:	2e 7f       	andi	r18, 0xFE	; 254
     68c:	fc 01       	movw	r30, r24
     68e:	20 83       	st	Z, r18

00000690 <.LM26>:
     690:	8d e2       	ldi	r24, 0x2D	; 45
     692:	90 e0       	ldi	r25, 0x00	; 0
     694:	fc 01       	movw	r30, r24
     696:	20 81       	ld	r18, Z
     698:	8d e2       	ldi	r24, 0x2D	; 45
     69a:	90 e0       	ldi	r25, 0x00	; 0
     69c:	20 64       	ori	r18, 0x40	; 64
     69e:	fc 01       	movw	r30, r24
     6a0:	20 83       	st	Z, r18

000006a2 <.LM27>:
     6a2:	00 00       	nop
     6a4:	df 91       	pop	r29
     6a6:	cf 91       	pop	r28
     6a8:	08 95       	ret

000006aa <SPI_EnableSS>:
     6aa:	cf 93       	push	r28
     6ac:	df 93       	push	r29
     6ae:	cd b7       	in	r28, 0x3d	; 61
     6b0:	de b7       	in	r29, 0x3e	; 62

000006b2 <.LM29>:
     6b2:	00 00       	nop
     6b4:	df 91       	pop	r29
     6b6:	cf 91       	pop	r28
     6b8:	08 95       	ret

000006ba <SPI_DisableSS>:
     6ba:	cf 93       	push	r28
     6bc:	df 93       	push	r29
     6be:	cd b7       	in	r28, 0x3d	; 61
     6c0:	de b7       	in	r29, 0x3e	; 62

000006c2 <.LM31>:
     6c2:	00 00       	nop
     6c4:	df 91       	pop	r29
     6c6:	cf 91       	pop	r28
     6c8:	08 95       	ret

000006ca <SPI_TransferByte>:
     6ca:	cf 93       	push	r28
     6cc:	df 93       	push	r29
     6ce:	0f 92       	push	r0
     6d0:	cd b7       	in	r28, 0x3d	; 61
     6d2:	de b7       	in	r29, 0x3e	; 62
     6d4:	89 83       	std	Y+1, r24	; 0x01

000006d6 <.LM33>:
     6d6:	8f e2       	ldi	r24, 0x2F	; 47
     6d8:	90 e0       	ldi	r25, 0x00	; 0

000006da <.LM34>:
     6da:	29 81       	ldd	r18, Y+1	; 0x01
     6dc:	fc 01       	movw	r30, r24
     6de:	20 83       	st	Z, r18

000006e0 <.LM35>:
	...

000006e2 <.L6>:
     6e2:	8e e2       	ldi	r24, 0x2E	; 46
     6e4:	90 e0       	ldi	r25, 0x00	; 0
     6e6:	fc 01       	movw	r30, r24
     6e8:	80 81       	ld	r24, Z

000006ea <.LM37>:
     6ea:	88 23       	and	r24, r24
     6ec:	d4 f7       	brge	.-12     	; 0x6e2 <.L6>

000006ee <.LM38>:
     6ee:	00 00       	nop
     6f0:	00 00       	nop
     6f2:	0f 90       	pop	r0
     6f4:	df 91       	pop	r29
     6f6:	cf 91       	pop	r28
     6f8:	08 95       	ret

000006fa <SPI_ReceiveByte>:
     6fa:	cf 93       	push	r28
     6fc:	df 93       	push	r29
     6fe:	cd b7       	in	r28, 0x3d	; 61
     700:	de b7       	in	r29, 0x3e	; 62

00000702 <.LM40>:
	...

00000704 <.L8>:
     704:	8e e2       	ldi	r24, 0x2E	; 46
     706:	90 e0       	ldi	r25, 0x00	; 0
     708:	fc 01       	movw	r30, r24
     70a:	80 81       	ld	r24, Z

0000070c <.LM42>:
     70c:	88 23       	and	r24, r24
     70e:	d4 f7       	brge	.-12     	; 0x704 <.L8>

00000710 <.LM43>:
     710:	8f e2       	ldi	r24, 0x2F	; 47
     712:	90 e0       	ldi	r25, 0x00	; 0
     714:	fc 01       	movw	r30, r24
     716:	80 81       	ld	r24, Z

00000718 <.LM44>:
     718:	df 91       	pop	r29
     71a:	cf 91       	pop	r28
     71c:	08 95       	ret

0000071e <SPI_SendString>:
     71e:	cf 93       	push	r28
     720:	df 93       	push	r29
     722:	00 d0       	rcall	.+0      	; 0x724 <L0^A>

00000724 <L0^A>:
     724:	cd b7       	in	r28, 0x3d	; 61
     726:	de b7       	in	r29, 0x3e	; 62
     728:	9a 83       	std	Y+2, r25	; 0x02
     72a:	89 83       	std	Y+1, r24	; 0x01

0000072c <.LM46>:
     72c:	0b c0       	rjmp	.+22     	; 0x744 <.L11>

0000072e <.L12>:
     72e:	89 81       	ldd	r24, Y+1	; 0x01
     730:	9a 81       	ldd	r25, Y+2	; 0x02
     732:	fc 01       	movw	r30, r24
     734:	80 81       	ld	r24, Z
     736:	0e 94 65 03 	call	0x6ca	; 0x6ca <SPI_TransferByte>

0000073a <.LM48>:
     73a:	89 81       	ldd	r24, Y+1	; 0x01
     73c:	9a 81       	ldd	r25, Y+2	; 0x02
     73e:	01 96       	adiw	r24, 0x01	; 1
     740:	9a 83       	std	Y+2, r25	; 0x02
     742:	89 83       	std	Y+1, r24	; 0x01

00000744 <.L11>:
     744:	89 81       	ldd	r24, Y+1	; 0x01
     746:	9a 81       	ldd	r25, Y+2	; 0x02
     748:	fc 01       	movw	r30, r24
     74a:	80 81       	ld	r24, Z

0000074c <.LM50>:
     74c:	88 23       	and	r24, r24
     74e:	79 f7       	brne	.-34     	; 0x72e <.L12>

00000750 <.LM51>:
     750:	00 00       	nop
     752:	00 00       	nop
     754:	0f 90       	pop	r0
     756:	0f 90       	pop	r0
     758:	df 91       	pop	r29
     75a:	cf 91       	pop	r28
     75c:	08 95       	ret

0000075e <GPIO_SetPortDirection>:
     75e:	cf 93       	push	r28
     760:	df 93       	push	r29
     762:	00 d0       	rcall	.+0      	; 0x764 <L0^A>

00000764 <L0^A>:
     764:	cd b7       	in	r28, 0x3d	; 61
     766:	de b7       	in	r29, 0x3e	; 62
     768:	89 83       	std	Y+1, r24	; 0x01
     76a:	6a 83       	std	Y+2, r22	; 0x02

0000076c <.LM1>:
     76c:	89 81       	ldd	r24, Y+1	; 0x01
     76e:	88 2f       	mov	r24, r24
     770:	90 e0       	ldi	r25, 0x00	; 0
     772:	83 30       	cpi	r24, 0x03	; 3
     774:	91 05       	cpc	r25, r1
     776:	19 f1       	breq	.+70     	; 0x7be <.L2>
     778:	83 30       	cpi	r24, 0x03	; 3
     77a:	91 05       	cpc	r25, r1
     77c:	09 f0       	breq	.+2      	; 0x780 <L0^A+0x2>

0000077e <L0^A>:
     77e:	2c f5       	brge	.+74     	; 0x7ca <.L3>
     780:	82 30       	cpi	r24, 0x02	; 2
     782:	91 05       	cpc	r25, r1
     784:	b1 f0       	breq	.+44     	; 0x7b2 <.L4>
     786:	82 30       	cpi	r24, 0x02	; 2
     788:	91 05       	cpc	r25, r1
     78a:	09 f0       	breq	.+2      	; 0x78e <L0^A+0x2>

0000078c <L0^A>:
     78c:	f4 f4       	brge	.+60     	; 0x7ca <.L3>
     78e:	00 97       	sbiw	r24, 0x00	; 0
     790:	21 f0       	breq	.+8      	; 0x79a <.L5>
     792:	81 30       	cpi	r24, 0x01	; 1
     794:	91 05       	cpc	r25, r1
     796:	39 f0       	breq	.+14     	; 0x7a6 <.L6>

00000798 <.LM2>:
     798:	18 c0       	rjmp	.+48     	; 0x7ca <.L3>

0000079a <.L5>:
     79a:	8a e3       	ldi	r24, 0x3A	; 58
     79c:	90 e0       	ldi	r25, 0x00	; 0

0000079e <.LM4>:
     79e:	2a 81       	ldd	r18, Y+2	; 0x02
     7a0:	fc 01       	movw	r30, r24
     7a2:	20 83       	st	Z, r18

000007a4 <.LM5>:
     7a4:	12 c0       	rjmp	.+36     	; 0x7ca <.L3>

000007a6 <.L6>:
     7a6:	84 e2       	ldi	r24, 0x24	; 36
     7a8:	90 e0       	ldi	r25, 0x00	; 0

000007aa <.LM7>:
     7aa:	2a 81       	ldd	r18, Y+2	; 0x02
     7ac:	fc 01       	movw	r30, r24
     7ae:	20 83       	st	Z, r18

000007b0 <.LM8>:
     7b0:	0c c0       	rjmp	.+24     	; 0x7ca <.L3>

000007b2 <.L4>:
     7b2:	84 e3       	ldi	r24, 0x34	; 52
     7b4:	90 e0       	ldi	r25, 0x00	; 0

000007b6 <.LM10>:
     7b6:	2a 81       	ldd	r18, Y+2	; 0x02
     7b8:	fc 01       	movw	r30, r24
     7ba:	20 83       	st	Z, r18

000007bc <.LM11>:
     7bc:	06 c0       	rjmp	.+12     	; 0x7ca <.L3>

000007be <.L2>:
     7be:	81 e3       	ldi	r24, 0x31	; 49
     7c0:	90 e0       	ldi	r25, 0x00	; 0

000007c2 <.LM13>:
     7c2:	2a 81       	ldd	r18, Y+2	; 0x02
     7c4:	fc 01       	movw	r30, r24
     7c6:	20 83       	st	Z, r18

000007c8 <.LM14>:
	...

000007ca <.L3>:
     7ca:	00 00       	nop
     7cc:	0f 90       	pop	r0
     7ce:	0f 90       	pop	r0
     7d0:	df 91       	pop	r29
     7d2:	cf 91       	pop	r28
     7d4:	08 95       	ret

000007d6 <GPIO_SetPortValue>:
     7d6:	cf 93       	push	r28
     7d8:	df 93       	push	r29
     7da:	00 d0       	rcall	.+0      	; 0x7dc <L0^A>

000007dc <L0^A>:
     7dc:	cd b7       	in	r28, 0x3d	; 61
     7de:	de b7       	in	r29, 0x3e	; 62
     7e0:	89 83       	std	Y+1, r24	; 0x01
     7e2:	6a 83       	std	Y+2, r22	; 0x02

000007e4 <.LM17>:
     7e4:	89 81       	ldd	r24, Y+1	; 0x01
     7e6:	88 2f       	mov	r24, r24
     7e8:	90 e0       	ldi	r25, 0x00	; 0
     7ea:	83 30       	cpi	r24, 0x03	; 3
     7ec:	91 05       	cpc	r25, r1
     7ee:	19 f1       	breq	.+70     	; 0x836 <.L9>
     7f0:	83 30       	cpi	r24, 0x03	; 3
     7f2:	91 05       	cpc	r25, r1
     7f4:	09 f0       	breq	.+2      	; 0x7f8 <L0^A+0x2>

000007f6 <L0^A>:
     7f6:	2c f5       	brge	.+74     	; 0x842 <.L10>
     7f8:	82 30       	cpi	r24, 0x02	; 2
     7fa:	91 05       	cpc	r25, r1
     7fc:	b1 f0       	breq	.+44     	; 0x82a <.L11>
     7fe:	82 30       	cpi	r24, 0x02	; 2
     800:	91 05       	cpc	r25, r1
     802:	09 f0       	breq	.+2      	; 0x806 <L0^A+0x2>

00000804 <L0^A>:
     804:	f4 f4       	brge	.+60     	; 0x842 <.L10>
     806:	00 97       	sbiw	r24, 0x00	; 0
     808:	21 f0       	breq	.+8      	; 0x812 <.L12>
     80a:	81 30       	cpi	r24, 0x01	; 1
     80c:	91 05       	cpc	r25, r1
     80e:	39 f0       	breq	.+14     	; 0x81e <.L13>

00000810 <.LM18>:
     810:	18 c0       	rjmp	.+48     	; 0x842 <.L10>

00000812 <.L12>:
     812:	8b e3       	ldi	r24, 0x3B	; 59
     814:	90 e0       	ldi	r25, 0x00	; 0

00000816 <.LM20>:
     816:	2a 81       	ldd	r18, Y+2	; 0x02
     818:	fc 01       	movw	r30, r24
     81a:	20 83       	st	Z, r18

0000081c <.LM21>:
     81c:	12 c0       	rjmp	.+36     	; 0x842 <.L10>

0000081e <.L13>:
     81e:	85 e2       	ldi	r24, 0x25	; 37
     820:	90 e0       	ldi	r25, 0x00	; 0

00000822 <.LM23>:
     822:	2a 81       	ldd	r18, Y+2	; 0x02
     824:	fc 01       	movw	r30, r24
     826:	20 83       	st	Z, r18

00000828 <.LM24>:
     828:	0c c0       	rjmp	.+24     	; 0x842 <.L10>

0000082a <.L11>:
     82a:	85 e3       	ldi	r24, 0x35	; 53
     82c:	90 e0       	ldi	r25, 0x00	; 0

0000082e <.LM26>:
     82e:	2a 81       	ldd	r18, Y+2	; 0x02
     830:	fc 01       	movw	r30, r24
     832:	20 83       	st	Z, r18

00000834 <.LM27>:
     834:	06 c0       	rjmp	.+12     	; 0x842 <.L10>

00000836 <.L9>:
     836:	82 e3       	ldi	r24, 0x32	; 50
     838:	90 e0       	ldi	r25, 0x00	; 0

0000083a <.LM29>:
     83a:	2a 81       	ldd	r18, Y+2	; 0x02
     83c:	fc 01       	movw	r30, r24
     83e:	20 83       	st	Z, r18

00000840 <.LM30>:
	...

00000842 <.L10>:
     842:	00 00       	nop
     844:	0f 90       	pop	r0
     846:	0f 90       	pop	r0
     848:	df 91       	pop	r29
     84a:	cf 91       	pop	r28
     84c:	08 95       	ret

0000084e <GPIO_GetPortValue>:
     84e:	cf 93       	push	r28
     850:	df 93       	push	r29
     852:	00 d0       	rcall	.+0      	; 0x854 <L0^A>

00000854 <L0^A>:
     854:	cd b7       	in	r28, 0x3d	; 61
     856:	de b7       	in	r29, 0x3e	; 62
     858:	8a 83       	std	Y+2, r24	; 0x02

0000085a <.LM33>:
     85a:	19 82       	std	Y+1, r1	; 0x01

0000085c <.LM34>:
     85c:	8a 81       	ldd	r24, Y+2	; 0x02
     85e:	88 2f       	mov	r24, r24
     860:	90 e0       	ldi	r25, 0x00	; 0
     862:	83 30       	cpi	r24, 0x03	; 3
     864:	91 05       	cpc	r25, r1
     866:	19 f1       	breq	.+70     	; 0x8ae <.L16>
     868:	83 30       	cpi	r24, 0x03	; 3
     86a:	91 05       	cpc	r25, r1
     86c:	09 f0       	breq	.+2      	; 0x870 <L0^A+0x2>

0000086e <L0^A>:
     86e:	2c f5       	brge	.+74     	; 0x8ba <.L17>
     870:	82 30       	cpi	r24, 0x02	; 2
     872:	91 05       	cpc	r25, r1
     874:	b1 f0       	breq	.+44     	; 0x8a2 <.L18>
     876:	82 30       	cpi	r24, 0x02	; 2
     878:	91 05       	cpc	r25, r1
     87a:	09 f0       	breq	.+2      	; 0x87e <L0^A+0x2>

0000087c <L0^A>:
     87c:	f4 f4       	brge	.+60     	; 0x8ba <.L17>
     87e:	00 97       	sbiw	r24, 0x00	; 0
     880:	21 f0       	breq	.+8      	; 0x88a <.L19>
     882:	81 30       	cpi	r24, 0x01	; 1
     884:	91 05       	cpc	r25, r1
     886:	39 f0       	breq	.+14     	; 0x896 <.L20>
     888:	18 c0       	rjmp	.+48     	; 0x8ba <.L17>

0000088a <.L19>:
     88a:	89 e3       	ldi	r24, 0x39	; 57
     88c:	90 e0       	ldi	r25, 0x00	; 0

0000088e <.LM36>:
     88e:	fc 01       	movw	r30, r24
     890:	80 81       	ld	r24, Z
     892:	89 83       	std	Y+1, r24	; 0x01

00000894 <.LM37>:
     894:	12 c0       	rjmp	.+36     	; 0x8ba <.L17>

00000896 <.L20>:
     896:	83 e2       	ldi	r24, 0x23	; 35
     898:	90 e0       	ldi	r25, 0x00	; 0

0000089a <.LM39>:
     89a:	fc 01       	movw	r30, r24
     89c:	80 81       	ld	r24, Z
     89e:	89 83       	std	Y+1, r24	; 0x01

000008a0 <.LM40>:
     8a0:	0c c0       	rjmp	.+24     	; 0x8ba <.L17>

000008a2 <.L18>:
     8a2:	83 e3       	ldi	r24, 0x33	; 51
     8a4:	90 e0       	ldi	r25, 0x00	; 0

000008a6 <.LM42>:
     8a6:	fc 01       	movw	r30, r24
     8a8:	80 81       	ld	r24, Z
     8aa:	89 83       	std	Y+1, r24	; 0x01

000008ac <.LM43>:
     8ac:	06 c0       	rjmp	.+12     	; 0x8ba <.L17>

000008ae <.L16>:
     8ae:	80 e3       	ldi	r24, 0x30	; 48
     8b0:	90 e0       	ldi	r25, 0x00	; 0

000008b2 <.LM45>:
     8b2:	fc 01       	movw	r30, r24
     8b4:	80 81       	ld	r24, Z
     8b6:	89 83       	std	Y+1, r24	; 0x01

000008b8 <.LM46>:
	...

000008ba <.L17>:
     8ba:	89 81       	ldd	r24, Y+1	; 0x01

000008bc <.LM48>:
     8bc:	0f 90       	pop	r0
     8be:	0f 90       	pop	r0
     8c0:	df 91       	pop	r29
     8c2:	cf 91       	pop	r28
     8c4:	08 95       	ret

000008c6 <GPIO_SetPinDirection>:
     8c6:	cf 93       	push	r28
     8c8:	df 93       	push	r29
     8ca:	00 d0       	rcall	.+0      	; 0x8cc <L0^A>

000008cc <L0^A>:
     8cc:	0f 92       	push	r0
     8ce:	cd b7       	in	r28, 0x3d	; 61
     8d0:	de b7       	in	r29, 0x3e	; 62
     8d2:	89 83       	std	Y+1, r24	; 0x01
     8d4:	6a 83       	std	Y+2, r22	; 0x02
     8d6:	4b 83       	std	Y+3, r20	; 0x03

000008d8 <.LM50>:
     8d8:	89 81       	ldd	r24, Y+1	; 0x01
     8da:	88 2f       	mov	r24, r24
     8dc:	90 e0       	ldi	r25, 0x00	; 0
     8de:	83 30       	cpi	r24, 0x03	; 3
     8e0:	91 05       	cpc	r25, r1
     8e2:	09 f4       	brne	.+2      	; 0x8e6 <L0^A+0x2>

000008e4 <L0^A>:
     8e4:	a4 c0       	rjmp	.+328    	; 0xa2e <.L23>
     8e6:	83 30       	cpi	r24, 0x03	; 3
     8e8:	91 05       	cpc	r25, r1
     8ea:	11 f0       	breq	.+4      	; 0x8f0 <L0^A+0x2>

000008ec <L0^A>:
     8ec:	0c f0       	brlt	.+2      	; 0x8f0 <L0^A+0x2>

000008ee <L0^A>:
     8ee:	cf c0       	rjmp	.+414    	; 0xa8e <.L24>
     8f0:	82 30       	cpi	r24, 0x02	; 2
     8f2:	91 05       	cpc	r25, r1
     8f4:	09 f4       	brne	.+2      	; 0x8f8 <L0^A+0x2>

000008f6 <L0^A>:
     8f6:	6b c0       	rjmp	.+214    	; 0x9ce <.L25>
     8f8:	82 30       	cpi	r24, 0x02	; 2
     8fa:	91 05       	cpc	r25, r1
     8fc:	11 f0       	breq	.+4      	; 0x902 <L0^A+0x2>

000008fe <L0^A>:
     8fe:	0c f0       	brlt	.+2      	; 0x902 <L0^A+0x2>

00000900 <L0^A>:
     900:	c6 c0       	rjmp	.+396    	; 0xa8e <.L24>
     902:	00 97       	sbiw	r24, 0x00	; 0
     904:	21 f0       	breq	.+8      	; 0x90e <.L26>
     906:	81 30       	cpi	r24, 0x01	; 1
     908:	91 05       	cpc	r25, r1
     90a:	89 f1       	breq	.+98     	; 0x96e <.L27>

0000090c <.LM51>:
     90c:	c0 c0       	rjmp	.+384    	; 0xa8e <.L24>

0000090e <.L26>:
     90e:	8b 81       	ldd	r24, Y+3	; 0x03
     910:	81 30       	cpi	r24, 0x01	; 1
     912:	b1 f4       	brne	.+44     	; 0x940 <.L28>

00000914 <.LM53>:
     914:	8a e3       	ldi	r24, 0x3A	; 58
     916:	90 e0       	ldi	r25, 0x00	; 0
     918:	fc 01       	movw	r30, r24
     91a:	80 81       	ld	r24, Z
     91c:	48 2f       	mov	r20, r24
     91e:	8a 81       	ldd	r24, Y+2	; 0x02
     920:	28 2f       	mov	r18, r24
     922:	30 e0       	ldi	r19, 0x00	; 0
     924:	81 e0       	ldi	r24, 0x01	; 1
     926:	90 e0       	ldi	r25, 0x00	; 0
     928:	02 c0       	rjmp	.+4      	; 0x92e <.L2^B1>

0000092a <.L1^B1>:
     92a:	88 0f       	add	r24, r24
     92c:	99 1f       	adc	r25, r25

0000092e <.L2^B1>:
     92e:	2a 95       	dec	r18
     930:	e2 f7       	brpl	.-8      	; 0x92a <.L1^B1>
     932:	24 2f       	mov	r18, r20
     934:	28 2b       	or	r18, r24
     936:	8a e3       	ldi	r24, 0x3A	; 58
     938:	90 e0       	ldi	r25, 0x00	; 0
     93a:	fc 01       	movw	r30, r24
     93c:	20 83       	st	Z, r18

0000093e <.LM54>:
     93e:	a7 c0       	rjmp	.+334    	; 0xa8e <.L24>

00000940 <.L28>:
     940:	8a e3       	ldi	r24, 0x3A	; 58
     942:	90 e0       	ldi	r25, 0x00	; 0
     944:	fc 01       	movw	r30, r24
     946:	80 81       	ld	r24, Z
     948:	48 2f       	mov	r20, r24
     94a:	8a 81       	ldd	r24, Y+2	; 0x02
     94c:	28 2f       	mov	r18, r24
     94e:	30 e0       	ldi	r19, 0x00	; 0
     950:	81 e0       	ldi	r24, 0x01	; 1
     952:	90 e0       	ldi	r25, 0x00	; 0
     954:	02 c0       	rjmp	.+4      	; 0x95a <.L2^B2>

00000956 <.L1^B2>:
     956:	88 0f       	add	r24, r24
     958:	99 1f       	adc	r25, r25

0000095a <.L2^B2>:
     95a:	2a 95       	dec	r18
     95c:	e2 f7       	brpl	.-8      	; 0x956 <.L1^B2>
     95e:	80 95       	com	r24
     960:	24 2f       	mov	r18, r20
     962:	28 23       	and	r18, r24
     964:	8a e3       	ldi	r24, 0x3A	; 58
     966:	90 e0       	ldi	r25, 0x00	; 0
     968:	fc 01       	movw	r30, r24
     96a:	20 83       	st	Z, r18

0000096c <.LM56>:
     96c:	90 c0       	rjmp	.+288    	; 0xa8e <.L24>

0000096e <.L27>:
     96e:	8b 81       	ldd	r24, Y+3	; 0x03
     970:	81 30       	cpi	r24, 0x01	; 1
     972:	b1 f4       	brne	.+44     	; 0x9a0 <.L30>

00000974 <.LM58>:
     974:	84 e2       	ldi	r24, 0x24	; 36
     976:	90 e0       	ldi	r25, 0x00	; 0
     978:	fc 01       	movw	r30, r24
     97a:	80 81       	ld	r24, Z
     97c:	48 2f       	mov	r20, r24
     97e:	8a 81       	ldd	r24, Y+2	; 0x02
     980:	28 2f       	mov	r18, r24
     982:	30 e0       	ldi	r19, 0x00	; 0
     984:	81 e0       	ldi	r24, 0x01	; 1
     986:	90 e0       	ldi	r25, 0x00	; 0
     988:	02 c0       	rjmp	.+4      	; 0x98e <.L2^B3>

0000098a <.L1^B3>:
     98a:	88 0f       	add	r24, r24
     98c:	99 1f       	adc	r25, r25

0000098e <.L2^B3>:
     98e:	2a 95       	dec	r18
     990:	e2 f7       	brpl	.-8      	; 0x98a <.L1^B3>
     992:	24 2f       	mov	r18, r20
     994:	28 2b       	or	r18, r24
     996:	84 e2       	ldi	r24, 0x24	; 36
     998:	90 e0       	ldi	r25, 0x00	; 0
     99a:	fc 01       	movw	r30, r24
     99c:	20 83       	st	Z, r18

0000099e <.LM59>:
     99e:	77 c0       	rjmp	.+238    	; 0xa8e <.L24>

000009a0 <.L30>:
     9a0:	84 e2       	ldi	r24, 0x24	; 36
     9a2:	90 e0       	ldi	r25, 0x00	; 0
     9a4:	fc 01       	movw	r30, r24
     9a6:	80 81       	ld	r24, Z
     9a8:	48 2f       	mov	r20, r24
     9aa:	8a 81       	ldd	r24, Y+2	; 0x02
     9ac:	28 2f       	mov	r18, r24
     9ae:	30 e0       	ldi	r19, 0x00	; 0
     9b0:	81 e0       	ldi	r24, 0x01	; 1
     9b2:	90 e0       	ldi	r25, 0x00	; 0
     9b4:	02 c0       	rjmp	.+4      	; 0x9ba <.L2^B4>

000009b6 <.L1^B4>:
     9b6:	88 0f       	add	r24, r24
     9b8:	99 1f       	adc	r25, r25

000009ba <.L2^B4>:
     9ba:	2a 95       	dec	r18
     9bc:	e2 f7       	brpl	.-8      	; 0x9b6 <.L1^B4>
     9be:	80 95       	com	r24
     9c0:	24 2f       	mov	r18, r20
     9c2:	28 23       	and	r18, r24
     9c4:	84 e2       	ldi	r24, 0x24	; 36
     9c6:	90 e0       	ldi	r25, 0x00	; 0
     9c8:	fc 01       	movw	r30, r24
     9ca:	20 83       	st	Z, r18

000009cc <.LM61>:
     9cc:	60 c0       	rjmp	.+192    	; 0xa8e <.L24>

000009ce <.L25>:
     9ce:	8b 81       	ldd	r24, Y+3	; 0x03
     9d0:	81 30       	cpi	r24, 0x01	; 1
     9d2:	b1 f4       	brne	.+44     	; 0xa00 <.L32>

000009d4 <.LM63>:
     9d4:	84 e3       	ldi	r24, 0x34	; 52
     9d6:	90 e0       	ldi	r25, 0x00	; 0
     9d8:	fc 01       	movw	r30, r24
     9da:	80 81       	ld	r24, Z
     9dc:	48 2f       	mov	r20, r24
     9de:	8a 81       	ldd	r24, Y+2	; 0x02
     9e0:	28 2f       	mov	r18, r24
     9e2:	30 e0       	ldi	r19, 0x00	; 0
     9e4:	81 e0       	ldi	r24, 0x01	; 1
     9e6:	90 e0       	ldi	r25, 0x00	; 0
     9e8:	02 c0       	rjmp	.+4      	; 0x9ee <.L2^B5>

000009ea <.L1^B5>:
     9ea:	88 0f       	add	r24, r24
     9ec:	99 1f       	adc	r25, r25

000009ee <.L2^B5>:
     9ee:	2a 95       	dec	r18
     9f0:	e2 f7       	brpl	.-8      	; 0x9ea <.L1^B5>
     9f2:	24 2f       	mov	r18, r20
     9f4:	28 2b       	or	r18, r24
     9f6:	84 e3       	ldi	r24, 0x34	; 52
     9f8:	90 e0       	ldi	r25, 0x00	; 0
     9fa:	fc 01       	movw	r30, r24
     9fc:	20 83       	st	Z, r18

000009fe <.LM64>:
     9fe:	47 c0       	rjmp	.+142    	; 0xa8e <.L24>

00000a00 <.L32>:
     a00:	84 e3       	ldi	r24, 0x34	; 52
     a02:	90 e0       	ldi	r25, 0x00	; 0
     a04:	fc 01       	movw	r30, r24
     a06:	80 81       	ld	r24, Z
     a08:	48 2f       	mov	r20, r24
     a0a:	8a 81       	ldd	r24, Y+2	; 0x02
     a0c:	28 2f       	mov	r18, r24
     a0e:	30 e0       	ldi	r19, 0x00	; 0
     a10:	81 e0       	ldi	r24, 0x01	; 1
     a12:	90 e0       	ldi	r25, 0x00	; 0
     a14:	02 c0       	rjmp	.+4      	; 0xa1a <.L2^B6>

00000a16 <.L1^B6>:
     a16:	88 0f       	add	r24, r24
     a18:	99 1f       	adc	r25, r25

00000a1a <.L2^B6>:
     a1a:	2a 95       	dec	r18
     a1c:	e2 f7       	brpl	.-8      	; 0xa16 <.L1^B6>
     a1e:	80 95       	com	r24
     a20:	24 2f       	mov	r18, r20
     a22:	28 23       	and	r18, r24
     a24:	84 e3       	ldi	r24, 0x34	; 52
     a26:	90 e0       	ldi	r25, 0x00	; 0
     a28:	fc 01       	movw	r30, r24
     a2a:	20 83       	st	Z, r18

00000a2c <.LM66>:
     a2c:	30 c0       	rjmp	.+96     	; 0xa8e <.L24>

00000a2e <.L23>:
     a2e:	8b 81       	ldd	r24, Y+3	; 0x03
     a30:	81 30       	cpi	r24, 0x01	; 1
     a32:	b1 f4       	brne	.+44     	; 0xa60 <.L34>

00000a34 <.LM68>:
     a34:	81 e3       	ldi	r24, 0x31	; 49
     a36:	90 e0       	ldi	r25, 0x00	; 0
     a38:	fc 01       	movw	r30, r24
     a3a:	80 81       	ld	r24, Z
     a3c:	48 2f       	mov	r20, r24
     a3e:	8a 81       	ldd	r24, Y+2	; 0x02
     a40:	28 2f       	mov	r18, r24
     a42:	30 e0       	ldi	r19, 0x00	; 0
     a44:	81 e0       	ldi	r24, 0x01	; 1
     a46:	90 e0       	ldi	r25, 0x00	; 0
     a48:	02 c0       	rjmp	.+4      	; 0xa4e <.L2^B7>

00000a4a <.L1^B7>:
     a4a:	88 0f       	add	r24, r24
     a4c:	99 1f       	adc	r25, r25

00000a4e <.L2^B7>:
     a4e:	2a 95       	dec	r18
     a50:	e2 f7       	brpl	.-8      	; 0xa4a <.L1^B7>
     a52:	24 2f       	mov	r18, r20
     a54:	28 2b       	or	r18, r24
     a56:	81 e3       	ldi	r24, 0x31	; 49
     a58:	90 e0       	ldi	r25, 0x00	; 0
     a5a:	fc 01       	movw	r30, r24
     a5c:	20 83       	st	Z, r18

00000a5e <.LM69>:
     a5e:	16 c0       	rjmp	.+44     	; 0xa8c <.L37>

00000a60 <.L34>:
     a60:	81 e3       	ldi	r24, 0x31	; 49
     a62:	90 e0       	ldi	r25, 0x00	; 0
     a64:	fc 01       	movw	r30, r24
     a66:	80 81       	ld	r24, Z
     a68:	48 2f       	mov	r20, r24
     a6a:	8a 81       	ldd	r24, Y+2	; 0x02
     a6c:	28 2f       	mov	r18, r24
     a6e:	30 e0       	ldi	r19, 0x00	; 0
     a70:	81 e0       	ldi	r24, 0x01	; 1
     a72:	90 e0       	ldi	r25, 0x00	; 0
     a74:	02 c0       	rjmp	.+4      	; 0xa7a <.L2^B8>

00000a76 <.L1^B8>:
     a76:	88 0f       	add	r24, r24
     a78:	99 1f       	adc	r25, r25

00000a7a <.L2^B8>:
     a7a:	2a 95       	dec	r18
     a7c:	e2 f7       	brpl	.-8      	; 0xa76 <.L1^B8>
     a7e:	80 95       	com	r24
     a80:	24 2f       	mov	r18, r20
     a82:	28 23       	and	r18, r24
     a84:	81 e3       	ldi	r24, 0x31	; 49
     a86:	90 e0       	ldi	r25, 0x00	; 0
     a88:	fc 01       	movw	r30, r24
     a8a:	20 83       	st	Z, r18

00000a8c <.L37>:
	...

00000a8e <.L24>:
     a8e:	00 00       	nop
     a90:	0f 90       	pop	r0
     a92:	0f 90       	pop	r0
     a94:	0f 90       	pop	r0
     a96:	df 91       	pop	r29
     a98:	cf 91       	pop	r28
     a9a:	08 95       	ret

00000a9c <GPIO_SetPinValue>:
     a9c:	cf 93       	push	r28
     a9e:	df 93       	push	r29
     aa0:	00 d0       	rcall	.+0      	; 0xaa2 <L0^A>

00000aa2 <L0^A>:
     aa2:	0f 92       	push	r0
     aa4:	cd b7       	in	r28, 0x3d	; 61
     aa6:	de b7       	in	r29, 0x3e	; 62
     aa8:	89 83       	std	Y+1, r24	; 0x01
     aaa:	6a 83       	std	Y+2, r22	; 0x02
     aac:	4b 83       	std	Y+3, r20	; 0x03

00000aae <.LM74>:
     aae:	89 81       	ldd	r24, Y+1	; 0x01
     ab0:	88 2f       	mov	r24, r24
     ab2:	90 e0       	ldi	r25, 0x00	; 0
     ab4:	83 30       	cpi	r24, 0x03	; 3
     ab6:	91 05       	cpc	r25, r1
     ab8:	09 f4       	brne	.+2      	; 0xabc <L0^A+0x2>

00000aba <L0^A>:
     aba:	a4 c0       	rjmp	.+328    	; 0xc04 <.L39>
     abc:	83 30       	cpi	r24, 0x03	; 3
     abe:	91 05       	cpc	r25, r1
     ac0:	11 f0       	breq	.+4      	; 0xac6 <L0^A+0x2>

00000ac2 <L0^A>:
     ac2:	0c f0       	brlt	.+2      	; 0xac6 <L0^A+0x2>

00000ac4 <L0^A>:
     ac4:	cf c0       	rjmp	.+414    	; 0xc64 <.L40>
     ac6:	82 30       	cpi	r24, 0x02	; 2
     ac8:	91 05       	cpc	r25, r1
     aca:	09 f4       	brne	.+2      	; 0xace <L0^A+0x2>

00000acc <L0^A>:
     acc:	6b c0       	rjmp	.+214    	; 0xba4 <.L41>
     ace:	82 30       	cpi	r24, 0x02	; 2
     ad0:	91 05       	cpc	r25, r1
     ad2:	11 f0       	breq	.+4      	; 0xad8 <L0^A+0x2>

00000ad4 <L0^A>:
     ad4:	0c f0       	brlt	.+2      	; 0xad8 <L0^A+0x2>

00000ad6 <L0^A>:
     ad6:	c6 c0       	rjmp	.+396    	; 0xc64 <.L40>
     ad8:	00 97       	sbiw	r24, 0x00	; 0
     ada:	21 f0       	breq	.+8      	; 0xae4 <.L42>
     adc:	81 30       	cpi	r24, 0x01	; 1
     ade:	91 05       	cpc	r25, r1
     ae0:	89 f1       	breq	.+98     	; 0xb44 <.L43>

00000ae2 <.LM75>:
     ae2:	c0 c0       	rjmp	.+384    	; 0xc64 <.L40>

00000ae4 <.L42>:
     ae4:	8b 81       	ldd	r24, Y+3	; 0x03
     ae6:	81 30       	cpi	r24, 0x01	; 1
     ae8:	b1 f4       	brne	.+44     	; 0xb16 <.L44>

00000aea <.LM77>:
     aea:	8b e3       	ldi	r24, 0x3B	; 59
     aec:	90 e0       	ldi	r25, 0x00	; 0
     aee:	fc 01       	movw	r30, r24
     af0:	80 81       	ld	r24, Z
     af2:	48 2f       	mov	r20, r24
     af4:	8a 81       	ldd	r24, Y+2	; 0x02
     af6:	28 2f       	mov	r18, r24
     af8:	30 e0       	ldi	r19, 0x00	; 0
     afa:	81 e0       	ldi	r24, 0x01	; 1
     afc:	90 e0       	ldi	r25, 0x00	; 0
     afe:	02 c0       	rjmp	.+4      	; 0xb04 <.L2^B9>

00000b00 <.L1^B9>:
     b00:	88 0f       	add	r24, r24
     b02:	99 1f       	adc	r25, r25

00000b04 <.L2^B9>:
     b04:	2a 95       	dec	r18
     b06:	e2 f7       	brpl	.-8      	; 0xb00 <.L1^B9>
     b08:	24 2f       	mov	r18, r20
     b0a:	28 2b       	or	r18, r24
     b0c:	8b e3       	ldi	r24, 0x3B	; 59
     b0e:	90 e0       	ldi	r25, 0x00	; 0
     b10:	fc 01       	movw	r30, r24
     b12:	20 83       	st	Z, r18

00000b14 <.LM78>:
     b14:	a7 c0       	rjmp	.+334    	; 0xc64 <.L40>

00000b16 <.L44>:
     b16:	8b e3       	ldi	r24, 0x3B	; 59
     b18:	90 e0       	ldi	r25, 0x00	; 0
     b1a:	fc 01       	movw	r30, r24
     b1c:	80 81       	ld	r24, Z
     b1e:	48 2f       	mov	r20, r24
     b20:	8a 81       	ldd	r24, Y+2	; 0x02
     b22:	28 2f       	mov	r18, r24
     b24:	30 e0       	ldi	r19, 0x00	; 0
     b26:	81 e0       	ldi	r24, 0x01	; 1
     b28:	90 e0       	ldi	r25, 0x00	; 0
     b2a:	02 c0       	rjmp	.+4      	; 0xb30 <.L2^B10>

00000b2c <.L1^B10>:
     b2c:	88 0f       	add	r24, r24
     b2e:	99 1f       	adc	r25, r25

00000b30 <.L2^B10>:
     b30:	2a 95       	dec	r18
     b32:	e2 f7       	brpl	.-8      	; 0xb2c <.L1^B10>
     b34:	80 95       	com	r24
     b36:	24 2f       	mov	r18, r20
     b38:	28 23       	and	r18, r24
     b3a:	8b e3       	ldi	r24, 0x3B	; 59
     b3c:	90 e0       	ldi	r25, 0x00	; 0
     b3e:	fc 01       	movw	r30, r24
     b40:	20 83       	st	Z, r18

00000b42 <.LM80>:
     b42:	90 c0       	rjmp	.+288    	; 0xc64 <.L40>

00000b44 <.L43>:
     b44:	8b 81       	ldd	r24, Y+3	; 0x03
     b46:	81 30       	cpi	r24, 0x01	; 1
     b48:	b1 f4       	brne	.+44     	; 0xb76 <.L46>

00000b4a <.LM82>:
     b4a:	85 e2       	ldi	r24, 0x25	; 37
     b4c:	90 e0       	ldi	r25, 0x00	; 0
     b4e:	fc 01       	movw	r30, r24
     b50:	80 81       	ld	r24, Z
     b52:	48 2f       	mov	r20, r24
     b54:	8a 81       	ldd	r24, Y+2	; 0x02
     b56:	28 2f       	mov	r18, r24
     b58:	30 e0       	ldi	r19, 0x00	; 0
     b5a:	81 e0       	ldi	r24, 0x01	; 1
     b5c:	90 e0       	ldi	r25, 0x00	; 0
     b5e:	02 c0       	rjmp	.+4      	; 0xb64 <.L2^B11>

00000b60 <.L1^B11>:
     b60:	88 0f       	add	r24, r24
     b62:	99 1f       	adc	r25, r25

00000b64 <.L2^B11>:
     b64:	2a 95       	dec	r18
     b66:	e2 f7       	brpl	.-8      	; 0xb60 <.L1^B11>
     b68:	24 2f       	mov	r18, r20
     b6a:	28 2b       	or	r18, r24
     b6c:	85 e2       	ldi	r24, 0x25	; 37
     b6e:	90 e0       	ldi	r25, 0x00	; 0
     b70:	fc 01       	movw	r30, r24
     b72:	20 83       	st	Z, r18

00000b74 <.LM83>:
     b74:	77 c0       	rjmp	.+238    	; 0xc64 <.L40>

00000b76 <.L46>:
     b76:	85 e2       	ldi	r24, 0x25	; 37
     b78:	90 e0       	ldi	r25, 0x00	; 0
     b7a:	fc 01       	movw	r30, r24
     b7c:	80 81       	ld	r24, Z
     b7e:	48 2f       	mov	r20, r24
     b80:	8a 81       	ldd	r24, Y+2	; 0x02
     b82:	28 2f       	mov	r18, r24
     b84:	30 e0       	ldi	r19, 0x00	; 0
     b86:	81 e0       	ldi	r24, 0x01	; 1
     b88:	90 e0       	ldi	r25, 0x00	; 0
     b8a:	02 c0       	rjmp	.+4      	; 0xb90 <.L2^B12>

00000b8c <.L1^B12>:
     b8c:	88 0f       	add	r24, r24
     b8e:	99 1f       	adc	r25, r25

00000b90 <.L2^B12>:
     b90:	2a 95       	dec	r18
     b92:	e2 f7       	brpl	.-8      	; 0xb8c <.L1^B12>
     b94:	80 95       	com	r24
     b96:	24 2f       	mov	r18, r20
     b98:	28 23       	and	r18, r24
     b9a:	85 e2       	ldi	r24, 0x25	; 37
     b9c:	90 e0       	ldi	r25, 0x00	; 0
     b9e:	fc 01       	movw	r30, r24
     ba0:	20 83       	st	Z, r18

00000ba2 <.LM85>:
     ba2:	60 c0       	rjmp	.+192    	; 0xc64 <.L40>

00000ba4 <.L41>:
     ba4:	8b 81       	ldd	r24, Y+3	; 0x03
     ba6:	81 30       	cpi	r24, 0x01	; 1
     ba8:	b1 f4       	brne	.+44     	; 0xbd6 <.L48>

00000baa <.LM87>:
     baa:	85 e3       	ldi	r24, 0x35	; 53
     bac:	90 e0       	ldi	r25, 0x00	; 0
     bae:	fc 01       	movw	r30, r24
     bb0:	80 81       	ld	r24, Z
     bb2:	48 2f       	mov	r20, r24
     bb4:	8a 81       	ldd	r24, Y+2	; 0x02
     bb6:	28 2f       	mov	r18, r24
     bb8:	30 e0       	ldi	r19, 0x00	; 0
     bba:	81 e0       	ldi	r24, 0x01	; 1
     bbc:	90 e0       	ldi	r25, 0x00	; 0
     bbe:	02 c0       	rjmp	.+4      	; 0xbc4 <.L2^B13>

00000bc0 <.L1^B13>:
     bc0:	88 0f       	add	r24, r24
     bc2:	99 1f       	adc	r25, r25

00000bc4 <.L2^B13>:
     bc4:	2a 95       	dec	r18
     bc6:	e2 f7       	brpl	.-8      	; 0xbc0 <.L1^B13>
     bc8:	24 2f       	mov	r18, r20
     bca:	28 2b       	or	r18, r24
     bcc:	85 e3       	ldi	r24, 0x35	; 53
     bce:	90 e0       	ldi	r25, 0x00	; 0
     bd0:	fc 01       	movw	r30, r24
     bd2:	20 83       	st	Z, r18

00000bd4 <.LM88>:
     bd4:	47 c0       	rjmp	.+142    	; 0xc64 <.L40>

00000bd6 <.L48>:
     bd6:	85 e3       	ldi	r24, 0x35	; 53
     bd8:	90 e0       	ldi	r25, 0x00	; 0
     bda:	fc 01       	movw	r30, r24
     bdc:	80 81       	ld	r24, Z
     bde:	48 2f       	mov	r20, r24
     be0:	8a 81       	ldd	r24, Y+2	; 0x02
     be2:	28 2f       	mov	r18, r24
     be4:	30 e0       	ldi	r19, 0x00	; 0
     be6:	81 e0       	ldi	r24, 0x01	; 1
     be8:	90 e0       	ldi	r25, 0x00	; 0
     bea:	02 c0       	rjmp	.+4      	; 0xbf0 <.L2^B14>

00000bec <.L1^B14>:
     bec:	88 0f       	add	r24, r24
     bee:	99 1f       	adc	r25, r25

00000bf0 <.L2^B14>:
     bf0:	2a 95       	dec	r18
     bf2:	e2 f7       	brpl	.-8      	; 0xbec <.L1^B14>
     bf4:	80 95       	com	r24
     bf6:	24 2f       	mov	r18, r20
     bf8:	28 23       	and	r18, r24
     bfa:	85 e3       	ldi	r24, 0x35	; 53
     bfc:	90 e0       	ldi	r25, 0x00	; 0
     bfe:	fc 01       	movw	r30, r24
     c00:	20 83       	st	Z, r18

00000c02 <.LM90>:
     c02:	30 c0       	rjmp	.+96     	; 0xc64 <.L40>

00000c04 <.L39>:
     c04:	8b 81       	ldd	r24, Y+3	; 0x03
     c06:	81 30       	cpi	r24, 0x01	; 1
     c08:	b1 f4       	brne	.+44     	; 0xc36 <.L50>

00000c0a <.LM92>:
     c0a:	82 e3       	ldi	r24, 0x32	; 50
     c0c:	90 e0       	ldi	r25, 0x00	; 0
     c0e:	fc 01       	movw	r30, r24
     c10:	80 81       	ld	r24, Z
     c12:	48 2f       	mov	r20, r24
     c14:	8a 81       	ldd	r24, Y+2	; 0x02
     c16:	28 2f       	mov	r18, r24
     c18:	30 e0       	ldi	r19, 0x00	; 0
     c1a:	81 e0       	ldi	r24, 0x01	; 1
     c1c:	90 e0       	ldi	r25, 0x00	; 0
     c1e:	02 c0       	rjmp	.+4      	; 0xc24 <.L2^B15>

00000c20 <.L1^B15>:
     c20:	88 0f       	add	r24, r24
     c22:	99 1f       	adc	r25, r25

00000c24 <.L2^B15>:
     c24:	2a 95       	dec	r18
     c26:	e2 f7       	brpl	.-8      	; 0xc20 <.L1^B15>
     c28:	24 2f       	mov	r18, r20
     c2a:	28 2b       	or	r18, r24
     c2c:	82 e3       	ldi	r24, 0x32	; 50
     c2e:	90 e0       	ldi	r25, 0x00	; 0
     c30:	fc 01       	movw	r30, r24
     c32:	20 83       	st	Z, r18

00000c34 <.LM93>:
     c34:	16 c0       	rjmp	.+44     	; 0xc62 <.L53>

00000c36 <.L50>:
     c36:	82 e3       	ldi	r24, 0x32	; 50
     c38:	90 e0       	ldi	r25, 0x00	; 0
     c3a:	fc 01       	movw	r30, r24
     c3c:	80 81       	ld	r24, Z
     c3e:	48 2f       	mov	r20, r24
     c40:	8a 81       	ldd	r24, Y+2	; 0x02
     c42:	28 2f       	mov	r18, r24
     c44:	30 e0       	ldi	r19, 0x00	; 0
     c46:	81 e0       	ldi	r24, 0x01	; 1
     c48:	90 e0       	ldi	r25, 0x00	; 0
     c4a:	02 c0       	rjmp	.+4      	; 0xc50 <.L2^B16>

00000c4c <.L1^B16>:
     c4c:	88 0f       	add	r24, r24
     c4e:	99 1f       	adc	r25, r25

00000c50 <.L2^B16>:
     c50:	2a 95       	dec	r18
     c52:	e2 f7       	brpl	.-8      	; 0xc4c <.L1^B16>
     c54:	80 95       	com	r24
     c56:	24 2f       	mov	r18, r20
     c58:	28 23       	and	r18, r24
     c5a:	82 e3       	ldi	r24, 0x32	; 50
     c5c:	90 e0       	ldi	r25, 0x00	; 0
     c5e:	fc 01       	movw	r30, r24
     c60:	20 83       	st	Z, r18

00000c62 <.L53>:
	...

00000c64 <.L40>:
     c64:	00 00       	nop
     c66:	0f 90       	pop	r0
     c68:	0f 90       	pop	r0
     c6a:	0f 90       	pop	r0
     c6c:	df 91       	pop	r29
     c6e:	cf 91       	pop	r28
     c70:	08 95       	ret

00000c72 <GPIO_GetPinValue>:
     c72:	cf 93       	push	r28
     c74:	df 93       	push	r29
     c76:	00 d0       	rcall	.+0      	; 0xc78 <L0^A>

00000c78 <L0^A>:
     c78:	0f 92       	push	r0
     c7a:	cd b7       	in	r28, 0x3d	; 61
     c7c:	de b7       	in	r29, 0x3e	; 62
     c7e:	8a 83       	std	Y+2, r24	; 0x02
     c80:	6b 83       	std	Y+3, r22	; 0x03

00000c82 <.LM98>:
     c82:	19 82       	std	Y+1, r1	; 0x01

00000c84 <.LM99>:
     c84:	8a 81       	ldd	r24, Y+2	; 0x02
     c86:	88 2f       	mov	r24, r24
     c88:	90 e0       	ldi	r25, 0x00	; 0
     c8a:	83 30       	cpi	r24, 0x03	; 3
     c8c:	91 05       	cpc	r25, r1
     c8e:	09 f4       	brne	.+2      	; 0xc92 <L0^A+0x2>

00000c90 <L0^A>:
     c90:	49 c0       	rjmp	.+146    	; 0xd24 <.L55>
     c92:	83 30       	cpi	r24, 0x03	; 3
     c94:	91 05       	cpc	r25, r1
     c96:	11 f0       	breq	.+4      	; 0xc9c <L0^A+0x2>

00000c98 <L0^A>:
     c98:	0c f0       	brlt	.+2      	; 0xc9c <L0^A+0x2>

00000c9a <L0^A>:
     c9a:	56 c0       	rjmp	.+172    	; 0xd48 <.L56>
     c9c:	82 30       	cpi	r24, 0x02	; 2
     c9e:	91 05       	cpc	r25, r1
     ca0:	79 f1       	breq	.+94     	; 0xd00 <.L57>
     ca2:	82 30       	cpi	r24, 0x02	; 2
     ca4:	91 05       	cpc	r25, r1
     ca6:	11 f0       	breq	.+4      	; 0xcac <L0^A+0x2>

00000ca8 <L0^A>:
     ca8:	0c f0       	brlt	.+2      	; 0xcac <L0^A+0x2>

00000caa <L0^A>:
     caa:	4e c0       	rjmp	.+156    	; 0xd48 <.L56>
     cac:	00 97       	sbiw	r24, 0x00	; 0
     cae:	21 f0       	breq	.+8      	; 0xcb8 <.L58>
     cb0:	81 30       	cpi	r24, 0x01	; 1
     cb2:	91 05       	cpc	r25, r1
     cb4:	99 f0       	breq	.+38     	; 0xcdc <.L59>
     cb6:	48 c0       	rjmp	.+144    	; 0xd48 <.L56>

00000cb8 <.L58>:
     cb8:	89 e3       	ldi	r24, 0x39	; 57
     cba:	90 e0       	ldi	r25, 0x00	; 0
     cbc:	fc 01       	movw	r30, r24
     cbe:	80 81       	ld	r24, Z
     cc0:	88 2f       	mov	r24, r24
     cc2:	90 e0       	ldi	r25, 0x00	; 0
     cc4:	2b 81       	ldd	r18, Y+3	; 0x03
     cc6:	22 2f       	mov	r18, r18
     cc8:	30 e0       	ldi	r19, 0x00	; 0
     cca:	02 2e       	mov	r0, r18
     ccc:	02 c0       	rjmp	.+4      	; 0xcd2 <.L2^B17>

00000cce <.L1^B17>:
     cce:	95 95       	asr	r25
     cd0:	87 95       	ror	r24

00000cd2 <.L2^B17>:
     cd2:	0a 94       	dec	r0
     cd4:	e2 f7       	brpl	.-8      	; 0xcce <.L1^B17>

00000cd6 <.LM101>:
     cd6:	81 70       	andi	r24, 0x01	; 1
     cd8:	89 83       	std	Y+1, r24	; 0x01

00000cda <.LM102>:
     cda:	36 c0       	rjmp	.+108    	; 0xd48 <.L56>

00000cdc <.L59>:
     cdc:	83 e2       	ldi	r24, 0x23	; 35
     cde:	90 e0       	ldi	r25, 0x00	; 0
     ce0:	fc 01       	movw	r30, r24
     ce2:	80 81       	ld	r24, Z
     ce4:	88 2f       	mov	r24, r24
     ce6:	90 e0       	ldi	r25, 0x00	; 0
     ce8:	2b 81       	ldd	r18, Y+3	; 0x03
     cea:	22 2f       	mov	r18, r18
     cec:	30 e0       	ldi	r19, 0x00	; 0
     cee:	02 2e       	mov	r0, r18
     cf0:	02 c0       	rjmp	.+4      	; 0xcf6 <.L2^B18>

00000cf2 <.L1^B18>:
     cf2:	95 95       	asr	r25
     cf4:	87 95       	ror	r24

00000cf6 <.L2^B18>:
     cf6:	0a 94       	dec	r0
     cf8:	e2 f7       	brpl	.-8      	; 0xcf2 <.L1^B18>

00000cfa <.LM104>:
     cfa:	81 70       	andi	r24, 0x01	; 1
     cfc:	89 83       	std	Y+1, r24	; 0x01

00000cfe <.LM105>:
     cfe:	24 c0       	rjmp	.+72     	; 0xd48 <.L56>

00000d00 <.L57>:
     d00:	83 e3       	ldi	r24, 0x33	; 51
     d02:	90 e0       	ldi	r25, 0x00	; 0
     d04:	fc 01       	movw	r30, r24
     d06:	80 81       	ld	r24, Z
     d08:	88 2f       	mov	r24, r24
     d0a:	90 e0       	ldi	r25, 0x00	; 0
     d0c:	2b 81       	ldd	r18, Y+3	; 0x03
     d0e:	22 2f       	mov	r18, r18
     d10:	30 e0       	ldi	r19, 0x00	; 0
     d12:	02 2e       	mov	r0, r18
     d14:	02 c0       	rjmp	.+4      	; 0xd1a <.L2^B19>

00000d16 <.L1^B19>:
     d16:	95 95       	asr	r25
     d18:	87 95       	ror	r24

00000d1a <.L2^B19>:
     d1a:	0a 94       	dec	r0
     d1c:	e2 f7       	brpl	.-8      	; 0xd16 <.L1^B19>

00000d1e <.LM107>:
     d1e:	81 70       	andi	r24, 0x01	; 1
     d20:	89 83       	std	Y+1, r24	; 0x01

00000d22 <.LM108>:
     d22:	12 c0       	rjmp	.+36     	; 0xd48 <.L56>

00000d24 <.L55>:
     d24:	80 e3       	ldi	r24, 0x30	; 48
     d26:	90 e0       	ldi	r25, 0x00	; 0
     d28:	fc 01       	movw	r30, r24
     d2a:	80 81       	ld	r24, Z
     d2c:	88 2f       	mov	r24, r24
     d2e:	90 e0       	ldi	r25, 0x00	; 0
     d30:	2b 81       	ldd	r18, Y+3	; 0x03
     d32:	22 2f       	mov	r18, r18
     d34:	30 e0       	ldi	r19, 0x00	; 0
     d36:	02 2e       	mov	r0, r18
     d38:	02 c0       	rjmp	.+4      	; 0xd3e <.L2^B20>

00000d3a <.L1^B20>:
     d3a:	95 95       	asr	r25
     d3c:	87 95       	ror	r24

00000d3e <.L2^B20>:
     d3e:	0a 94       	dec	r0
     d40:	e2 f7       	brpl	.-8      	; 0xd3a <.L1^B20>

00000d42 <.LM110>:
     d42:	81 70       	andi	r24, 0x01	; 1
     d44:	89 83       	std	Y+1, r24	; 0x01

00000d46 <.LM111>:
	...

00000d48 <.L56>:
     d48:	89 81       	ldd	r24, Y+1	; 0x01

00000d4a <.LM113>:
     d4a:	0f 90       	pop	r0
     d4c:	0f 90       	pop	r0
     d4e:	0f 90       	pop	r0
     d50:	df 91       	pop	r29
     d52:	cf 91       	pop	r28
     d54:	08 95       	ret

00000d56 <GPIO_TogglePin>:
     d56:	cf 93       	push	r28
     d58:	df 93       	push	r29
     d5a:	00 d0       	rcall	.+0      	; 0xd5c <L0^A>

00000d5c <L0^A>:
     d5c:	cd b7       	in	r28, 0x3d	; 61
     d5e:	de b7       	in	r29, 0x3e	; 62
     d60:	89 83       	std	Y+1, r24	; 0x01
     d62:	6a 83       	std	Y+2, r22	; 0x02

00000d64 <.LM115>:
     d64:	89 81       	ldd	r24, Y+1	; 0x01
     d66:	88 2f       	mov	r24, r24
     d68:	90 e0       	ldi	r25, 0x00	; 0
     d6a:	83 30       	cpi	r24, 0x03	; 3
     d6c:	91 05       	cpc	r25, r1
     d6e:	09 f4       	brne	.+2      	; 0xd72 <L0^A+0x2>

00000d70 <L0^A>:
     d70:	55 c0       	rjmp	.+170    	; 0xe1c <.L62>
     d72:	83 30       	cpi	r24, 0x03	; 3
     d74:	91 05       	cpc	r25, r1
     d76:	11 f0       	breq	.+4      	; 0xd7c <L0^A+0x2>

00000d78 <L0^A>:
     d78:	0c f0       	brlt	.+2      	; 0xd7c <L0^A+0x2>

00000d7a <L0^A>:
     d7a:	66 c0       	rjmp	.+204    	; 0xe48 <.L63>
     d7c:	82 30       	cpi	r24, 0x02	; 2
     d7e:	91 05       	cpc	r25, r1
     d80:	b9 f1       	breq	.+110    	; 0xdf0 <.L64>
     d82:	82 30       	cpi	r24, 0x02	; 2
     d84:	91 05       	cpc	r25, r1
     d86:	11 f0       	breq	.+4      	; 0xd8c <L0^A+0x2>

00000d88 <L0^A>:
     d88:	0c f0       	brlt	.+2      	; 0xd8c <L0^A+0x2>

00000d8a <L0^A>:
     d8a:	5e c0       	rjmp	.+188    	; 0xe48 <.L63>
     d8c:	00 97       	sbiw	r24, 0x00	; 0
     d8e:	21 f0       	breq	.+8      	; 0xd98 <.L65>
     d90:	81 30       	cpi	r24, 0x01	; 1
     d92:	91 05       	cpc	r25, r1
     d94:	b9 f0       	breq	.+46     	; 0xdc4 <.L66>

00000d96 <.LM116>:
     d96:	58 c0       	rjmp	.+176    	; 0xe48 <.L63>

00000d98 <.L65>:
     d98:	8b e3       	ldi	r24, 0x3B	; 59
     d9a:	90 e0       	ldi	r25, 0x00	; 0
     d9c:	fc 01       	movw	r30, r24
     d9e:	80 81       	ld	r24, Z
     da0:	48 2f       	mov	r20, r24
     da2:	8a 81       	ldd	r24, Y+2	; 0x02
     da4:	28 2f       	mov	r18, r24
     da6:	30 e0       	ldi	r19, 0x00	; 0
     da8:	81 e0       	ldi	r24, 0x01	; 1
     daa:	90 e0       	ldi	r25, 0x00	; 0
     dac:	02 c0       	rjmp	.+4      	; 0xdb2 <.L2^B21>

00000dae <.L1^B21>:
     dae:	88 0f       	add	r24, r24
     db0:	99 1f       	adc	r25, r25

00000db2 <.L2^B21>:
     db2:	2a 95       	dec	r18
     db4:	e2 f7       	brpl	.-8      	; 0xdae <.L1^B21>
     db6:	24 2f       	mov	r18, r20
     db8:	28 27       	eor	r18, r24
     dba:	8b e3       	ldi	r24, 0x3B	; 59
     dbc:	90 e0       	ldi	r25, 0x00	; 0
     dbe:	fc 01       	movw	r30, r24
     dc0:	20 83       	st	Z, r18

00000dc2 <.LM118>:
     dc2:	42 c0       	rjmp	.+132    	; 0xe48 <.L63>

00000dc4 <.L66>:
     dc4:	85 e2       	ldi	r24, 0x25	; 37
     dc6:	90 e0       	ldi	r25, 0x00	; 0
     dc8:	fc 01       	movw	r30, r24
     dca:	80 81       	ld	r24, Z
     dcc:	48 2f       	mov	r20, r24
     dce:	8a 81       	ldd	r24, Y+2	; 0x02
     dd0:	28 2f       	mov	r18, r24
     dd2:	30 e0       	ldi	r19, 0x00	; 0
     dd4:	81 e0       	ldi	r24, 0x01	; 1
     dd6:	90 e0       	ldi	r25, 0x00	; 0
     dd8:	02 c0       	rjmp	.+4      	; 0xdde <.L2^B22>

00000dda <.L1^B22>:
     dda:	88 0f       	add	r24, r24
     ddc:	99 1f       	adc	r25, r25

00000dde <.L2^B22>:
     dde:	2a 95       	dec	r18
     de0:	e2 f7       	brpl	.-8      	; 0xdda <.L1^B22>
     de2:	24 2f       	mov	r18, r20
     de4:	28 27       	eor	r18, r24
     de6:	85 e2       	ldi	r24, 0x25	; 37
     de8:	90 e0       	ldi	r25, 0x00	; 0
     dea:	fc 01       	movw	r30, r24
     dec:	20 83       	st	Z, r18

00000dee <.LM120>:
     dee:	2c c0       	rjmp	.+88     	; 0xe48 <.L63>

00000df0 <.L64>:
     df0:	85 e3       	ldi	r24, 0x35	; 53
     df2:	90 e0       	ldi	r25, 0x00	; 0
     df4:	fc 01       	movw	r30, r24
     df6:	80 81       	ld	r24, Z
     df8:	48 2f       	mov	r20, r24
     dfa:	8a 81       	ldd	r24, Y+2	; 0x02
     dfc:	28 2f       	mov	r18, r24
     dfe:	30 e0       	ldi	r19, 0x00	; 0
     e00:	81 e0       	ldi	r24, 0x01	; 1
     e02:	90 e0       	ldi	r25, 0x00	; 0
     e04:	02 c0       	rjmp	.+4      	; 0xe0a <.L2^B23>

00000e06 <.L1^B23>:
     e06:	88 0f       	add	r24, r24
     e08:	99 1f       	adc	r25, r25

00000e0a <.L2^B23>:
     e0a:	2a 95       	dec	r18
     e0c:	e2 f7       	brpl	.-8      	; 0xe06 <.L1^B23>
     e0e:	24 2f       	mov	r18, r20
     e10:	28 27       	eor	r18, r24
     e12:	85 e3       	ldi	r24, 0x35	; 53
     e14:	90 e0       	ldi	r25, 0x00	; 0
     e16:	fc 01       	movw	r30, r24
     e18:	20 83       	st	Z, r18

00000e1a <.LM122>:
     e1a:	16 c0       	rjmp	.+44     	; 0xe48 <.L63>

00000e1c <.L62>:
     e1c:	82 e3       	ldi	r24, 0x32	; 50
     e1e:	90 e0       	ldi	r25, 0x00	; 0
     e20:	fc 01       	movw	r30, r24
     e22:	80 81       	ld	r24, Z
     e24:	48 2f       	mov	r20, r24
     e26:	8a 81       	ldd	r24, Y+2	; 0x02
     e28:	28 2f       	mov	r18, r24
     e2a:	30 e0       	ldi	r19, 0x00	; 0
     e2c:	81 e0       	ldi	r24, 0x01	; 1
     e2e:	90 e0       	ldi	r25, 0x00	; 0
     e30:	02 c0       	rjmp	.+4      	; 0xe36 <.L2^B24>

00000e32 <.L1^B24>:
     e32:	88 0f       	add	r24, r24
     e34:	99 1f       	adc	r25, r25

00000e36 <.L2^B24>:
     e36:	2a 95       	dec	r18
     e38:	e2 f7       	brpl	.-8      	; 0xe32 <.L1^B24>
     e3a:	24 2f       	mov	r18, r20
     e3c:	28 27       	eor	r18, r24
     e3e:	82 e3       	ldi	r24, 0x32	; 50
     e40:	90 e0       	ldi	r25, 0x00	; 0
     e42:	fc 01       	movw	r30, r24
     e44:	20 83       	st	Z, r18

00000e46 <.LM124>:
	...

00000e48 <.L63>:
     e48:	00 00       	nop
     e4a:	0f 90       	pop	r0
     e4c:	0f 90       	pop	r0
     e4e:	df 91       	pop	r29
     e50:	cf 91       	pop	r28
     e52:	08 95       	ret

00000e54 <GPIO_SetPullUpOnPin>:
     e54:	cf 93       	push	r28
     e56:	df 93       	push	r29
     e58:	00 d0       	rcall	.+0      	; 0xe5a <L0^A>

00000e5a <L0^A>:
     e5a:	cd b7       	in	r28, 0x3d	; 61
     e5c:	de b7       	in	r29, 0x3e	; 62
     e5e:	89 83       	std	Y+1, r24	; 0x01
     e60:	6a 83       	std	Y+2, r22	; 0x02

00000e62 <.LM127>:
     e62:	40 e0       	ldi	r20, 0x00	; 0
     e64:	6a 81       	ldd	r22, Y+2	; 0x02
     e66:	89 81       	ldd	r24, Y+1	; 0x01
     e68:	0e 94 63 04 	call	0x8c6	; 0x8c6 <GPIO_SetPinDirection>

00000e6c <.LM128>:
     e6c:	41 e0       	ldi	r20, 0x01	; 1
     e6e:	6a 81       	ldd	r22, Y+2	; 0x02
     e70:	89 81       	ldd	r24, Y+1	; 0x01
     e72:	0e 94 4e 05 	call	0xa9c	; 0xa9c <GPIO_SetPinValue>

00000e76 <.LM129>:
     e76:	00 00       	nop
     e78:	0f 90       	pop	r0
     e7a:	0f 90       	pop	r0
     e7c:	df 91       	pop	r29
     e7e:	cf 91       	pop	r28
     e80:	08 95       	ret

00000e82 <ADC_Init>:
     e82:	cf 93       	push	r28
     e84:	df 93       	push	r29
     e86:	cd b7       	in	r28, 0x3d	; 61
     e88:	de b7       	in	r29, 0x3e	; 62

00000e8a <.LM1>:
     e8a:	86 e2       	ldi	r24, 0x26	; 38
     e8c:	90 e0       	ldi	r25, 0x00	; 0
     e8e:	fc 01       	movw	r30, r24
     e90:	20 81       	ld	r18, Z
     e92:	86 e2       	ldi	r24, 0x26	; 38
     e94:	90 e0       	ldi	r25, 0x00	; 0
     e96:	20 68       	ori	r18, 0x80	; 128
     e98:	fc 01       	movw	r30, r24
     e9a:	20 83       	st	Z, r18

00000e9c <.LM2>:
     e9c:	86 e2       	ldi	r24, 0x26	; 38
     e9e:	90 e0       	ldi	r25, 0x00	; 0
     ea0:	fc 01       	movw	r30, r24
     ea2:	20 81       	ld	r18, Z
     ea4:	86 e2       	ldi	r24, 0x26	; 38
     ea6:	90 e0       	ldi	r25, 0x00	; 0
     ea8:	28 60       	ori	r18, 0x08	; 8
     eaa:	fc 01       	movw	r30, r24
     eac:	20 83       	st	Z, r18

00000eae <.LM3>:
     eae:	87 e2       	ldi	r24, 0x27	; 39
     eb0:	90 e0       	ldi	r25, 0x00	; 0
     eb2:	fc 01       	movw	r30, r24
     eb4:	20 81       	ld	r18, Z

00000eb6 <.LM4>:
     eb6:	87 e2       	ldi	r24, 0x27	; 39
     eb8:	90 e0       	ldi	r25, 0x00	; 0

00000eba <.LM5>:
     eba:	2f 73       	andi	r18, 0x3F	; 63
     ebc:	fc 01       	movw	r30, r24
     ebe:	20 83       	st	Z, r18

00000ec0 <.LM6>:
     ec0:	87 e2       	ldi	r24, 0x27	; 39
     ec2:	90 e0       	ldi	r25, 0x00	; 0
     ec4:	fc 01       	movw	r30, r24
     ec6:	20 81       	ld	r18, Z
     ec8:	87 e2       	ldi	r24, 0x27	; 39
     eca:	90 e0       	ldi	r25, 0x00	; 0

00000ecc <.LM7>:
     ecc:	20 64       	ori	r18, 0x40	; 64
     ece:	fc 01       	movw	r30, r24
     ed0:	20 83       	st	Z, r18

00000ed2 <.LM8>:
     ed2:	87 e2       	ldi	r24, 0x27	; 39
     ed4:	90 e0       	ldi	r25, 0x00	; 0
     ed6:	fc 01       	movw	r30, r24
     ed8:	20 81       	ld	r18, Z
     eda:	87 e2       	ldi	r24, 0x27	; 39
     edc:	90 e0       	ldi	r25, 0x00	; 0
     ede:	20 62       	ori	r18, 0x20	; 32
     ee0:	fc 01       	movw	r30, r24
     ee2:	20 83       	st	Z, r18

00000ee4 <.LM9>:
     ee4:	86 e2       	ldi	r24, 0x26	; 38
     ee6:	90 e0       	ldi	r25, 0x00	; 0
     ee8:	fc 01       	movw	r30, r24
     eea:	20 81       	ld	r18, Z

00000eec <.LM10>:
     eec:	86 e2       	ldi	r24, 0x26	; 38
     eee:	90 e0       	ldi	r25, 0x00	; 0

00000ef0 <.LM11>:
     ef0:	28 7f       	andi	r18, 0xF8	; 248
     ef2:	fc 01       	movw	r30, r24
     ef4:	20 83       	st	Z, r18

00000ef6 <.LM12>:
     ef6:	86 e2       	ldi	r24, 0x26	; 38
     ef8:	90 e0       	ldi	r25, 0x00	; 0
     efa:	fc 01       	movw	r30, r24
     efc:	20 81       	ld	r18, Z
     efe:	86 e2       	ldi	r24, 0x26	; 38
     f00:	90 e0       	ldi	r25, 0x00	; 0

00000f02 <.LM13>:
     f02:	26 60       	ori	r18, 0x06	; 6
     f04:	fc 01       	movw	r30, r24
     f06:	20 83       	st	Z, r18

00000f08 <.LM14>:
     f08:	00 00       	nop
     f0a:	df 91       	pop	r29
     f0c:	cf 91       	pop	r28
     f0e:	08 95       	ret

00000f10 <ADC_InterruptControl>:
     f10:	cf 93       	push	r28
     f12:	df 93       	push	r29
     f14:	0f 92       	push	r0
     f16:	cd b7       	in	r28, 0x3d	; 61
     f18:	de b7       	in	r29, 0x3e	; 62
     f1a:	89 83       	std	Y+1, r24	; 0x01

00000f1c <.LM16>:
     f1c:	89 81       	ldd	r24, Y+1	; 0x01
     f1e:	88 2f       	mov	r24, r24
     f20:	90 e0       	ldi	r25, 0x00	; 0
     f22:	00 97       	sbiw	r24, 0x00	; 0
     f24:	21 f0       	breq	.+8      	; 0xf2e <.L3>
     f26:	81 30       	cpi	r24, 0x01	; 1
     f28:	91 05       	cpc	r25, r1
     f2a:	59 f0       	breq	.+22     	; 0xf42 <.L4>

00000f2c <.LM17>:
     f2c:	14 c0       	rjmp	.+40     	; 0xf56 <.L6>

00000f2e <.L3>:
     f2e:	86 e2       	ldi	r24, 0x26	; 38
     f30:	90 e0       	ldi	r25, 0x00	; 0
     f32:	fc 01       	movw	r30, r24
     f34:	20 81       	ld	r18, Z
     f36:	86 e2       	ldi	r24, 0x26	; 38
     f38:	90 e0       	ldi	r25, 0x00	; 0
     f3a:	27 7f       	andi	r18, 0xF7	; 247
     f3c:	fc 01       	movw	r30, r24
     f3e:	20 83       	st	Z, r18

00000f40 <.LM19>:
     f40:	0a c0       	rjmp	.+20     	; 0xf56 <.L6>

00000f42 <.L4>:
     f42:	86 e2       	ldi	r24, 0x26	; 38
     f44:	90 e0       	ldi	r25, 0x00	; 0
     f46:	fc 01       	movw	r30, r24
     f48:	20 81       	ld	r18, Z
     f4a:	86 e2       	ldi	r24, 0x26	; 38
     f4c:	90 e0       	ldi	r25, 0x00	; 0
     f4e:	28 60       	ori	r18, 0x08	; 8
     f50:	fc 01       	movw	r30, r24
     f52:	20 83       	st	Z, r18

00000f54 <.LM21>:
	...

00000f56 <.L6>:
     f56:	00 00       	nop
     f58:	0f 90       	pop	r0
     f5a:	df 91       	pop	r29
     f5c:	cf 91       	pop	r28
     f5e:	08 95       	ret

00000f60 <ADC_StartConversionSynchronous>:
     f60:	cf 93       	push	r28
     f62:	df 93       	push	r29
     f64:	00 d0       	rcall	.+0      	; 0xf66 <L0^A>

00000f66 <L0^A>:
     f66:	cd b7       	in	r28, 0x3d	; 61
     f68:	de b7       	in	r29, 0x3e	; 62
     f6a:	8a 83       	std	Y+2, r24	; 0x02

00000f6c <.LM24>:
     f6c:	87 e2       	ldi	r24, 0x27	; 39
     f6e:	90 e0       	ldi	r25, 0x00	; 0
     f70:	fc 01       	movw	r30, r24
     f72:	20 81       	ld	r18, Z

00000f74 <.LM25>:
     f74:	87 e2       	ldi	r24, 0x27	; 39
     f76:	90 e0       	ldi	r25, 0x00	; 0

00000f78 <.LM26>:
     f78:	20 7e       	andi	r18, 0xE0	; 224
     f7a:	fc 01       	movw	r30, r24
     f7c:	20 83       	st	Z, r18

00000f7e <.LM27>:
     f7e:	87 e2       	ldi	r24, 0x27	; 39
     f80:	90 e0       	ldi	r25, 0x00	; 0
     f82:	fc 01       	movw	r30, r24
     f84:	30 81       	ld	r19, Z
     f86:	87 e2       	ldi	r24, 0x27	; 39
     f88:	90 e0       	ldi	r25, 0x00	; 0

00000f8a <.LM28>:
     f8a:	2a 81       	ldd	r18, Y+2	; 0x02
     f8c:	23 2b       	or	r18, r19
     f8e:	fc 01       	movw	r30, r24
     f90:	20 83       	st	Z, r18

00000f92 <.LM29>:
     f92:	86 e2       	ldi	r24, 0x26	; 38
     f94:	90 e0       	ldi	r25, 0x00	; 0
     f96:	fc 01       	movw	r30, r24
     f98:	20 81       	ld	r18, Z
     f9a:	86 e2       	ldi	r24, 0x26	; 38
     f9c:	90 e0       	ldi	r25, 0x00	; 0
     f9e:	20 64       	ori	r18, 0x40	; 64
     fa0:	fc 01       	movw	r30, r24
     fa2:	20 83       	st	Z, r18

00000fa4 <.LM30>:
	...

00000fa6 <.L8>:
     fa6:	86 e2       	ldi	r24, 0x26	; 38
     fa8:	90 e0       	ldi	r25, 0x00	; 0
     faa:	fc 01       	movw	r30, r24
     fac:	80 81       	ld	r24, Z
     fae:	82 95       	swap	r24
     fb0:	8f 70       	andi	r24, 0x0F	; 15
     fb2:	88 2f       	mov	r24, r24
     fb4:	90 e0       	ldi	r25, 0x00	; 0
     fb6:	81 70       	andi	r24, 0x01	; 1
     fb8:	99 27       	eor	r25, r25

00000fba <.LM32>:
     fba:	00 97       	sbiw	r24, 0x00	; 0
     fbc:	a1 f3       	breq	.-24     	; 0xfa6 <.L8>

00000fbe <.LM33>:
     fbe:	86 e2       	ldi	r24, 0x26	; 38
     fc0:	90 e0       	ldi	r25, 0x00	; 0
     fc2:	fc 01       	movw	r30, r24
     fc4:	20 81       	ld	r18, Z
     fc6:	86 e2       	ldi	r24, 0x26	; 38
     fc8:	90 e0       	ldi	r25, 0x00	; 0
     fca:	20 61       	ori	r18, 0x10	; 16
     fcc:	fc 01       	movw	r30, r24
     fce:	20 83       	st	Z, r18

00000fd0 <.LM34>:
     fd0:	85 e2       	ldi	r24, 0x25	; 37
     fd2:	90 e0       	ldi	r25, 0x00	; 0

00000fd4 <.LM35>:
     fd4:	fc 01       	movw	r30, r24
     fd6:	80 81       	ld	r24, Z
     fd8:	89 83       	std	Y+1, r24	; 0x01

00000fda <.LM36>:
     fda:	89 81       	ldd	r24, Y+1	; 0x01

00000fdc <.LM37>:
     fdc:	0f 90       	pop	r0
     fde:	0f 90       	pop	r0
     fe0:	df 91       	pop	r29
     fe2:	cf 91       	pop	r28
     fe4:	08 95       	ret

00000fe6 <LCD_Init>:
     fe6:	cf 93       	push	r28
     fe8:	df 93       	push	r29
     fea:	cd b7       	in	r28, 0x3d	; 61
     fec:	de b7       	in	r29, 0x3e	; 62
     fee:	c4 54       	subi	r28, 0x44	; 68
     ff0:	d1 09       	sbc	r29, r1
     ff2:	0f b6       	in	r0, 0x3f	; 63
     ff4:	f8 94       	cli
     ff6:	de bf       	out	0x3e, r29	; 62
     ff8:	0f be       	out	0x3f, r0	; 63
     ffa:	cd bf       	out	0x3d, r28	; 61

00000ffc <.LM1>:
     ffc:	41 e0       	ldi	r20, 0x01	; 1
     ffe:	64 e0       	ldi	r22, 0x04	; 4
    1000:	82 e0       	ldi	r24, 0x02	; 2
    1002:	0e 94 63 04 	call	0x8c6	; 0x8c6 <GPIO_SetPinDirection>

00001006 <.LM2>:
    1006:	41 e0       	ldi	r20, 0x01	; 1
    1008:	65 e0       	ldi	r22, 0x05	; 5
    100a:	82 e0       	ldi	r24, 0x02	; 2
    100c:	0e 94 63 04 	call	0x8c6	; 0x8c6 <GPIO_SetPinDirection>

00001010 <.LM3>:
    1010:	41 e0       	ldi	r20, 0x01	; 1
    1012:	66 e0       	ldi	r22, 0x06	; 6
    1014:	82 e0       	ldi	r24, 0x02	; 2
    1016:	0e 94 63 04 	call	0x8c6	; 0x8c6 <GPIO_SetPinDirection>

0000101a <.LM4>:
    101a:	41 e0       	ldi	r20, 0x01	; 1
    101c:	67 e0       	ldi	r22, 0x07	; 7
    101e:	82 e0       	ldi	r24, 0x02	; 2
    1020:	0e 94 63 04 	call	0x8c6	; 0x8c6 <GPIO_SetPinDirection>

00001024 <.LM5>:
    1024:	41 e0       	ldi	r20, 0x01	; 1
    1026:	62 e0       	ldi	r22, 0x02	; 2
    1028:	82 e0       	ldi	r24, 0x02	; 2
    102a:	0e 94 63 04 	call	0x8c6	; 0x8c6 <GPIO_SetPinDirection>

0000102e <.LM6>:
    102e:	41 e0       	ldi	r20, 0x01	; 1
    1030:	61 e0       	ldi	r22, 0x01	; 1
    1032:	82 e0       	ldi	r24, 0x02	; 2
    1034:	0e 94 63 04 	call	0x8c6	; 0x8c6 <GPIO_SetPinDirection>

00001038 <.LM7>:
    1038:	41 e0       	ldi	r20, 0x01	; 1
    103a:	60 e0       	ldi	r22, 0x00	; 0
    103c:	82 e0       	ldi	r24, 0x02	; 2
    103e:	0e 94 63 04 	call	0x8c6	; 0x8c6 <GPIO_SetPinDirection>
    1042:	80 e0       	ldi	r24, 0x00	; 0
    1044:	90 e0       	ldi	r25, 0x00	; 0
    1046:	a0 ea       	ldi	r26, 0xA0	; 160
    1048:	b1 e4       	ldi	r27, 0x41	; 65
    104a:	8f 87       	std	Y+15, r24	; 0x0f
    104c:	98 8b       	std	Y+16, r25	; 0x10
    104e:	a9 8b       	std	Y+17, r26	; 0x11
    1050:	ba 8b       	std	Y+18, r27	; 0x12

00001052 <.LM8>:
    1052:	20 e0       	ldi	r18, 0x00	; 0
    1054:	30 e0       	ldi	r19, 0x00	; 0
    1056:	4a e7       	ldi	r20, 0x7A	; 122
    1058:	53 e4       	ldi	r21, 0x43	; 67
    105a:	6f 85       	ldd	r22, Y+15	; 0x0f
    105c:	78 89       	ldd	r23, Y+16	; 0x10
    105e:	89 89       	ldd	r24, Y+17	; 0x11
    1060:	9a 89       	ldd	r25, Y+18	; 0x12
    1062:	0e 94 ba 19 	call	0x3374	; 0x3374 <__mulsf3>
    1066:	6d a3       	std	Y+37, r22	; 0x25
    1068:	7e a3       	std	Y+38, r23	; 0x26
    106a:	8f a3       	std	Y+39, r24	; 0x27
    106c:	98 a7       	std	Y+40, r25	; 0x28
    106e:	8d a1       	ldd	r24, Y+37	; 0x25
    1070:	9e a1       	ldd	r25, Y+38	; 0x26
    1072:	af a1       	ldd	r26, Y+39	; 0x27
    1074:	b8 a5       	ldd	r27, Y+40	; 0x28
    1076:	8b 8b       	std	Y+19, r24	; 0x13
    1078:	9c 8b       	std	Y+20, r25	; 0x14
    107a:	ad 8b       	std	Y+21, r26	; 0x15
    107c:	be 8b       	std	Y+22, r27	; 0x16

0000107e <.LM9>:
    107e:	20 e0       	ldi	r18, 0x00	; 0
    1080:	30 e0       	ldi	r19, 0x00	; 0
    1082:	40 e8       	ldi	r20, 0x80	; 128
    1084:	5f e3       	ldi	r21, 0x3F	; 63
    1086:	6b 89       	ldd	r22, Y+19	; 0x13
    1088:	7c 89       	ldd	r23, Y+20	; 0x14
    108a:	8d 89       	ldd	r24, Y+21	; 0x15
    108c:	9e 89       	ldd	r25, Y+22	; 0x16
    108e:	0e 94 9a 18 	call	0x3134	; 0x3134 <__cmpsf2>
    1092:	88 23       	and	r24, r24
    1094:	2c f4       	brge	.+10     	; 0x10a0 <.L22>

00001096 <.LM10>:
    1096:	81 e0       	ldi	r24, 0x01	; 1
    1098:	90 e0       	ldi	r25, 0x00	; 0
    109a:	98 8f       	std	Y+24, r25	; 0x18
    109c:	8f 8b       	std	Y+23, r24	; 0x17
    109e:	55 c0       	rjmp	.+170    	; 0x114a <.L4>

000010a0 <.L22>:
    10a0:	20 e0       	ldi	r18, 0x00	; 0
    10a2:	3f ef       	ldi	r19, 0xFF	; 255
    10a4:	4f e7       	ldi	r20, 0x7F	; 127
    10a6:	57 e4       	ldi	r21, 0x47	; 71
    10a8:	6b 89       	ldd	r22, Y+19	; 0x13
    10aa:	7c 89       	ldd	r23, Y+20	; 0x14
    10ac:	8d 89       	ldd	r24, Y+21	; 0x15
    10ae:	9e 89       	ldd	r25, Y+22	; 0x16
    10b0:	0e 94 b5 19 	call	0x336a	; 0x336a <__gesf2>
    10b4:	88 23       	and	r24, r24
    10b6:	d9 f1       	breq	.+118    	; 0x112e <.L23>
    10b8:	d4 f1       	brlt	.+116    	; 0x112e <.L23>

000010ba <.LM12>:
    10ba:	20 e0       	ldi	r18, 0x00	; 0
    10bc:	30 e0       	ldi	r19, 0x00	; 0
    10be:	40 e2       	ldi	r20, 0x20	; 32
    10c0:	51 e4       	ldi	r21, 0x41	; 65
    10c2:	6f 85       	ldd	r22, Y+15	; 0x0f
    10c4:	78 89       	ldd	r23, Y+16	; 0x10
    10c6:	89 89       	ldd	r24, Y+17	; 0x11
    10c8:	9a 89       	ldd	r25, Y+18	; 0x12
    10ca:	0e 94 ba 19 	call	0x3374	; 0x3374 <__mulsf3>
    10ce:	69 a7       	std	Y+41, r22	; 0x29
    10d0:	7a a7       	std	Y+42, r23	; 0x2a
    10d2:	8b a7       	std	Y+43, r24	; 0x2b
    10d4:	9c a7       	std	Y+44, r25	; 0x2c
    10d6:	89 a5       	ldd	r24, Y+41	; 0x29
    10d8:	9a a5       	ldd	r25, Y+42	; 0x2a
    10da:	ab a5       	ldd	r26, Y+43	; 0x2b
    10dc:	bc a5       	ldd	r27, Y+44	; 0x2c
    10de:	89 a3       	std	Y+33, r24	; 0x21
    10e0:	9a a3       	std	Y+34, r25	; 0x22
    10e2:	ab a3       	std	Y+35, r26	; 0x23
    10e4:	bc a3       	std	Y+36, r27	; 0x24

000010e6 <.LM13>:
    10e6:	69 a1       	ldd	r22, Y+33	; 0x21
    10e8:	7a a1       	ldd	r23, Y+34	; 0x22
    10ea:	8b a1       	ldd	r24, Y+35	; 0x23
    10ec:	9c a1       	ldd	r25, Y+36	; 0x24
    10ee:	0e 94 11 19 	call	0x3222	; 0x3222 <__fixunssfsi>
    10f2:	6d a7       	std	Y+45, r22	; 0x2d
    10f4:	7e a7       	std	Y+46, r23	; 0x2e
    10f6:	8f a7       	std	Y+47, r24	; 0x2f
    10f8:	98 ab       	std	Y+48, r25	; 0x30
    10fa:	ad a5       	ldd	r26, Y+45	; 0x2d
    10fc:	be a5       	ldd	r27, Y+46	; 0x2e
    10fe:	b8 8f       	std	Y+24, r27	; 0x18
    1100:	af 8b       	std	Y+23, r26	; 0x17

00001102 <.LM14>:
    1102:	10 c0       	rjmp	.+32     	; 0x1124 <.L7>

00001104 <.L8>:
    1104:	89 e1       	ldi	r24, 0x19	; 25
    1106:	90 e0       	ldi	r25, 0x00	; 0
    1108:	9a 8f       	std	Y+26, r25	; 0x1a
    110a:	89 8f       	std	Y+25, r24	; 0x19

0000110c <.LM15>:
    110c:	89 8d       	ldd	r24, Y+25	; 0x19
    110e:	9a 8d       	ldd	r25, Y+26	; 0x1a

00001110 <.L1^B1>:
    1110:	01 97       	sbiw	r24, 0x01	; 1
    1112:	f1 f7       	brne	.-4      	; 0x1110 <.L1^B1>
    1114:	9a 8f       	std	Y+26, r25	; 0x1a
    1116:	89 8f       	std	Y+25, r24	; 0x19

00001118 <.LM16>:
	...

0000111a <.LM17>:
    111a:	8f 89       	ldd	r24, Y+23	; 0x17
    111c:	98 8d       	ldd	r25, Y+24	; 0x18
    111e:	01 97       	sbiw	r24, 0x01	; 1
    1120:	98 8f       	std	Y+24, r25	; 0x18
    1122:	8f 8b       	std	Y+23, r24	; 0x17

00001124 <.L7>:
    1124:	8f 89       	ldd	r24, Y+23	; 0x17
    1126:	98 8d       	ldd	r25, Y+24	; 0x18
    1128:	00 97       	sbiw	r24, 0x00	; 0
    112a:	61 f7       	brne	.-40     	; 0x1104 <.L8>

0000112c <.LM19>:
    112c:	19 c0       	rjmp	.+50     	; 0x1160 <.L9>

0000112e <.L23>:
    112e:	6b 89       	ldd	r22, Y+19	; 0x13
    1130:	7c 89       	ldd	r23, Y+20	; 0x14
    1132:	8d 89       	ldd	r24, Y+21	; 0x15
    1134:	9e 89       	ldd	r25, Y+22	; 0x16
    1136:	0e 94 11 19 	call	0x3222	; 0x3222 <__fixunssfsi>
    113a:	69 ab       	std	Y+49, r22	; 0x31
    113c:	7a ab       	std	Y+50, r23	; 0x32
    113e:	8b ab       	std	Y+51, r24	; 0x33
    1140:	9c ab       	std	Y+52, r25	; 0x34
    1142:	89 a9       	ldd	r24, Y+49	; 0x31
    1144:	9a a9       	ldd	r25, Y+50	; 0x32
    1146:	98 8f       	std	Y+24, r25	; 0x18
    1148:	8f 8b       	std	Y+23, r24	; 0x17

0000114a <.L4>:
    114a:	8f 89       	ldd	r24, Y+23	; 0x17
    114c:	98 8d       	ldd	r25, Y+24	; 0x18
    114e:	9c 8f       	std	Y+28, r25	; 0x1c
    1150:	8b 8f       	std	Y+27, r24	; 0x1b

00001152 <.LM21>:
    1152:	8b 8d       	ldd	r24, Y+27	; 0x1b
    1154:	9c 8d       	ldd	r25, Y+28	; 0x1c

00001156 <.L1^B2>:
    1156:	01 97       	sbiw	r24, 0x01	; 1
    1158:	f1 f7       	brne	.-4      	; 0x1156 <.L1^B2>
    115a:	9c 8f       	std	Y+28, r25	; 0x1c
    115c:	8b 8f       	std	Y+27, r24	; 0x1b

0000115e <.LM22>:
	...

00001160 <.L9>:
    1160:	82 e0       	ldi	r24, 0x02	; 2
    1162:	0e 94 63 09 	call	0x12c6	; 0x12c6 <LCD_SendCommand>

00001166 <.LM24>:
    1166:	88 e2       	ldi	r24, 0x28	; 40
    1168:	0e 94 63 09 	call	0x12c6	; 0x12c6 <LCD_SendCommand>

0000116c <.LM25>:
    116c:	81 e0       	ldi	r24, 0x01	; 1
    116e:	0e 94 63 09 	call	0x12c6	; 0x12c6 <LCD_SendCommand>

00001172 <.LM26>:
    1172:	82 e0       	ldi	r24, 0x02	; 2
    1174:	0e 94 63 09 	call	0x12c6	; 0x12c6 <LCD_SendCommand>

00001178 <.LM27>:
    1178:	86 e0       	ldi	r24, 0x06	; 6
    117a:	0e 94 63 09 	call	0x12c6	; 0x12c6 <LCD_SendCommand>

0000117e <.LM28>:
    117e:	8c e0       	ldi	r24, 0x0C	; 12
    1180:	0e 94 63 09 	call	0x12c6	; 0x12c6 <LCD_SendCommand>
    1184:	80 e0       	ldi	r24, 0x00	; 0
    1186:	90 e0       	ldi	r25, 0x00	; 0
    1188:	a0 e0       	ldi	r26, 0x00	; 0
    118a:	b0 e4       	ldi	r27, 0x40	; 64
    118c:	89 83       	std	Y+1, r24	; 0x01
    118e:	9a 83       	std	Y+2, r25	; 0x02
    1190:	ab 83       	std	Y+3, r26	; 0x03
    1192:	bc 83       	std	Y+4, r27	; 0x04

00001194 <.LM29>:
    1194:	20 e0       	ldi	r18, 0x00	; 0
    1196:	30 e0       	ldi	r19, 0x00	; 0
    1198:	4a e7       	ldi	r20, 0x7A	; 122
    119a:	53 e4       	ldi	r21, 0x43	; 67
    119c:	69 81       	ldd	r22, Y+1	; 0x01
    119e:	7a 81       	ldd	r23, Y+2	; 0x02
    11a0:	8b 81       	ldd	r24, Y+3	; 0x03
    11a2:	9c 81       	ldd	r25, Y+4	; 0x04
    11a4:	0e 94 ba 19 	call	0x3374	; 0x3374 <__mulsf3>
    11a8:	6d ab       	std	Y+53, r22	; 0x35
    11aa:	7e ab       	std	Y+54, r23	; 0x36
    11ac:	8f ab       	std	Y+55, r24	; 0x37
    11ae:	98 af       	std	Y+56, r25	; 0x38
    11b0:	8d a9       	ldd	r24, Y+53	; 0x35
    11b2:	9e a9       	ldd	r25, Y+54	; 0x36
    11b4:	af a9       	ldd	r26, Y+55	; 0x37
    11b6:	b8 ad       	ldd	r27, Y+56	; 0x38
    11b8:	8d 83       	std	Y+5, r24	; 0x05
    11ba:	9e 83       	std	Y+6, r25	; 0x06
    11bc:	af 83       	std	Y+7, r26	; 0x07
    11be:	b8 87       	std	Y+8, r27	; 0x08

000011c0 <.LM30>:
    11c0:	20 e0       	ldi	r18, 0x00	; 0
    11c2:	30 e0       	ldi	r19, 0x00	; 0
    11c4:	40 e8       	ldi	r20, 0x80	; 128
    11c6:	5f e3       	ldi	r21, 0x3F	; 63
    11c8:	6d 81       	ldd	r22, Y+5	; 0x05
    11ca:	7e 81       	ldd	r23, Y+6	; 0x06
    11cc:	8f 81       	ldd	r24, Y+7	; 0x07
    11ce:	98 85       	ldd	r25, Y+8	; 0x08
    11d0:	0e 94 9a 18 	call	0x3134	; 0x3134 <__cmpsf2>
    11d4:	88 23       	and	r24, r24
    11d6:	2c f4       	brge	.+10     	; 0x11e2 <.L24>

000011d8 <.LM31>:
    11d8:	81 e0       	ldi	r24, 0x01	; 1
    11da:	90 e0       	ldi	r25, 0x00	; 0
    11dc:	9a 87       	std	Y+10, r25	; 0x0a
    11de:	89 87       	std	Y+9, r24	; 0x09
    11e0:	5c c0       	rjmp	.+184    	; 0x129a <.L12>

000011e2 <.L24>:
    11e2:	20 e0       	ldi	r18, 0x00	; 0
    11e4:	3f ef       	ldi	r19, 0xFF	; 255
    11e6:	4f e7       	ldi	r20, 0x7F	; 127
    11e8:	57 e4       	ldi	r21, 0x47	; 71
    11ea:	6d 81       	ldd	r22, Y+5	; 0x05
    11ec:	7e 81       	ldd	r23, Y+6	; 0x06
    11ee:	8f 81       	ldd	r24, Y+7	; 0x07
    11f0:	98 85       	ldd	r25, Y+8	; 0x08
    11f2:	0e 94 b5 19 	call	0x336a	; 0x336a <__gesf2>
    11f6:	88 23       	and	r24, r24
    11f8:	09 f0       	breq	.+2      	; 0x11fc <L0^A>

000011fa <L0^A>:
    11fa:	0c f4       	brge	.+2      	; 0x11fe <.LM33>

000011fc <L0^A>:
    11fc:	3c c0       	rjmp	.+120    	; 0x1276 <.L25>

000011fe <.LM33>:
    11fe:	20 e0       	ldi	r18, 0x00	; 0
    1200:	30 e0       	ldi	r19, 0x00	; 0
    1202:	40 e2       	ldi	r20, 0x20	; 32
    1204:	51 e4       	ldi	r21, 0x41	; 65
    1206:	69 81       	ldd	r22, Y+1	; 0x01
    1208:	7a 81       	ldd	r23, Y+2	; 0x02
    120a:	8b 81       	ldd	r24, Y+3	; 0x03
    120c:	9c 81       	ldd	r25, Y+4	; 0x04
    120e:	0e 94 ba 19 	call	0x3374	; 0x3374 <__mulsf3>
    1212:	69 af       	std	Y+57, r22	; 0x39
    1214:	7a af       	std	Y+58, r23	; 0x3a
    1216:	8b af       	std	Y+59, r24	; 0x3b
    1218:	9c af       	std	Y+60, r25	; 0x3c
    121a:	89 ad       	ldd	r24, Y+57	; 0x39
    121c:	9a ad       	ldd	r25, Y+58	; 0x3a
    121e:	ab ad       	ldd	r26, Y+59	; 0x3b
    1220:	bc ad       	ldd	r27, Y+60	; 0x3c
    1222:	8d 8f       	std	Y+29, r24	; 0x1d
    1224:	9e 8f       	std	Y+30, r25	; 0x1e
    1226:	af 8f       	std	Y+31, r26	; 0x1f
    1228:	b8 a3       	std	Y+32, r27	; 0x20

0000122a <.LM34>:
    122a:	6d 8d       	ldd	r22, Y+29	; 0x1d
    122c:	7e 8d       	ldd	r23, Y+30	; 0x1e
    122e:	8f 8d       	ldd	r24, Y+31	; 0x1f
    1230:	98 a1       	ldd	r25, Y+32	; 0x20
    1232:	0e 94 11 19 	call	0x3222	; 0x3222 <__fixunssfsi>
    1236:	21 96       	adiw	r28, 0x01	; 1
    1238:	6c af       	std	Y+60, r22	; 0x3c
    123a:	7d af       	std	Y+61, r23	; 0x3d
    123c:	8e af       	std	Y+62, r24	; 0x3e
    123e:	9f af       	std	Y+63, r25	; 0x3f
    1240:	21 97       	sbiw	r28, 0x01	; 1
    1242:	ad ad       	ldd	r26, Y+61	; 0x3d
    1244:	be ad       	ldd	r27, Y+62	; 0x3e
    1246:	ba 87       	std	Y+10, r27	; 0x0a
    1248:	a9 87       	std	Y+9, r26	; 0x09

0000124a <.LM35>:
    124a:	10 c0       	rjmp	.+32     	; 0x126c <.L15>

0000124c <.L16>:
    124c:	89 e1       	ldi	r24, 0x19	; 25
    124e:	90 e0       	ldi	r25, 0x00	; 0
    1250:	9c 87       	std	Y+12, r25	; 0x0c
    1252:	8b 87       	std	Y+11, r24	; 0x0b

00001254 <.LM36>:
    1254:	8b 85       	ldd	r24, Y+11	; 0x0b
    1256:	9c 85       	ldd	r25, Y+12	; 0x0c

00001258 <.L1^B3>:
    1258:	01 97       	sbiw	r24, 0x01	; 1
    125a:	f1 f7       	brne	.-4      	; 0x1258 <.L1^B3>
    125c:	9c 87       	std	Y+12, r25	; 0x0c
    125e:	8b 87       	std	Y+11, r24	; 0x0b

00001260 <.LM37>:
	...

00001262 <.LM38>:
    1262:	89 85       	ldd	r24, Y+9	; 0x09
    1264:	9a 85       	ldd	r25, Y+10	; 0x0a
    1266:	01 97       	sbiw	r24, 0x01	; 1
    1268:	9a 87       	std	Y+10, r25	; 0x0a
    126a:	89 87       	std	Y+9, r24	; 0x09

0000126c <.L15>:
    126c:	89 85       	ldd	r24, Y+9	; 0x09
    126e:	9a 85       	ldd	r25, Y+10	; 0x0a
    1270:	00 97       	sbiw	r24, 0x00	; 0
    1272:	61 f7       	brne	.-40     	; 0x124c <.L16>

00001274 <.LM40>:
    1274:	1d c0       	rjmp	.+58     	; 0x12b0 <.L17>

00001276 <.L25>:
    1276:	6d 81       	ldd	r22, Y+5	; 0x05
    1278:	7e 81       	ldd	r23, Y+6	; 0x06
    127a:	8f 81       	ldd	r24, Y+7	; 0x07
    127c:	98 85       	ldd	r25, Y+8	; 0x08
    127e:	0e 94 11 19 	call	0x3222	; 0x3222 <__fixunssfsi>
    1282:	25 96       	adiw	r28, 0x05	; 5
    1284:	6c af       	std	Y+60, r22	; 0x3c
    1286:	7d af       	std	Y+61, r23	; 0x3d
    1288:	8e af       	std	Y+62, r24	; 0x3e
    128a:	9f af       	std	Y+63, r25	; 0x3f
    128c:	25 97       	sbiw	r28, 0x05	; 5
    128e:	23 96       	adiw	r28, 0x03	; 3
    1290:	8e ad       	ldd	r24, Y+62	; 0x3e
    1292:	9f ad       	ldd	r25, Y+63	; 0x3f
    1294:	23 97       	sbiw	r28, 0x03	; 3
    1296:	9a 87       	std	Y+10, r25	; 0x0a
    1298:	89 87       	std	Y+9, r24	; 0x09

0000129a <.L12>:
    129a:	89 85       	ldd	r24, Y+9	; 0x09
    129c:	9a 85       	ldd	r25, Y+10	; 0x0a
    129e:	9e 87       	std	Y+14, r25	; 0x0e
    12a0:	8d 87       	std	Y+13, r24	; 0x0d

000012a2 <.LM42>:
    12a2:	8d 85       	ldd	r24, Y+13	; 0x0d
    12a4:	9e 85       	ldd	r25, Y+14	; 0x0e

000012a6 <.L1^B4>:
    12a6:	01 97       	sbiw	r24, 0x01	; 1
    12a8:	f1 f7       	brne	.-4      	; 0x12a6 <.L1^B4>
    12aa:	9e 87       	std	Y+14, r25	; 0x0e
    12ac:	8d 87       	std	Y+13, r24	; 0x0d

000012ae <.LM43>:
	...

000012b0 <.L17>:
    12b0:	00 00       	nop
    12b2:	cc 5b       	subi	r28, 0xBC	; 188
    12b4:	df 4f       	sbci	r29, 0xFF	; 255
    12b6:	0f b6       	in	r0, 0x3f	; 63
    12b8:	f8 94       	cli
    12ba:	de bf       	out	0x3e, r29	; 62
    12bc:	0f be       	out	0x3f, r0	; 63
    12be:	cd bf       	out	0x3d, r28	; 61
    12c0:	df 91       	pop	r29
    12c2:	cf 91       	pop	r28
    12c4:	08 95       	ret

000012c6 <LCD_SendCommand>:
    12c6:	0f 93       	push	r16
    12c8:	1f 93       	push	r17
    12ca:	cf 93       	push	r28
    12cc:	df 93       	push	r29
    12ce:	cd b7       	in	r28, 0x3d	; 61
    12d0:	de b7       	in	r29, 0x3e	; 62
    12d2:	cb 5f       	subi	r28, 0xFB	; 251
    12d4:	d1 09       	sbc	r29, r1
    12d6:	0f b6       	in	r0, 0x3f	; 63
    12d8:	f8 94       	cli
    12da:	de bf       	out	0x3e, r29	; 62
    12dc:	0f be       	out	0x3f, r0	; 63
    12de:	cd bf       	out	0x3d, r28	; 61
    12e0:	9e 01       	movw	r18, r28
    12e2:	21 59       	subi	r18, 0x91	; 145
    12e4:	3f 4f       	sbci	r19, 0xFF	; 255
    12e6:	d9 01       	movw	r26, r18
    12e8:	8c 93       	st	X, r24

000012ea <.LM46>:
    12ea:	ce 01       	movw	r24, r28
    12ec:	81 59       	subi	r24, 0x91	; 145
    12ee:	9f 4f       	sbci	r25, 0xFF	; 255
    12f0:	fc 01       	movw	r30, r24
    12f2:	80 81       	ld	r24, Z
    12f4:	82 95       	swap	r24
    12f6:	8f 70       	andi	r24, 0x0F	; 15

000012f8 <.LM47>:
    12f8:	81 70       	andi	r24, 0x01	; 1
    12fa:	48 2f       	mov	r20, r24
    12fc:	64 e0       	ldi	r22, 0x04	; 4
    12fe:	82 e0       	ldi	r24, 0x02	; 2
    1300:	0e 94 4e 05 	call	0xa9c	; 0xa9c <GPIO_SetPinValue>

00001304 <.LM48>:
    1304:	ce 01       	movw	r24, r28
    1306:	81 59       	subi	r24, 0x91	; 145
    1308:	9f 4f       	sbci	r25, 0xFF	; 255
    130a:	dc 01       	movw	r26, r24
    130c:	8c 91       	ld	r24, X
    130e:	82 95       	swap	r24
    1310:	86 95       	lsr	r24
    1312:	87 70       	andi	r24, 0x07	; 7

00001314 <.LM49>:
    1314:	81 70       	andi	r24, 0x01	; 1
    1316:	48 2f       	mov	r20, r24
    1318:	65 e0       	ldi	r22, 0x05	; 5
    131a:	82 e0       	ldi	r24, 0x02	; 2
    131c:	0e 94 4e 05 	call	0xa9c	; 0xa9c <GPIO_SetPinValue>

00001320 <.LM50>:
    1320:	ce 01       	movw	r24, r28
    1322:	81 59       	subi	r24, 0x91	; 145
    1324:	9f 4f       	sbci	r25, 0xFF	; 255
    1326:	fc 01       	movw	r30, r24
    1328:	80 81       	ld	r24, Z
    132a:	82 95       	swap	r24
    132c:	86 95       	lsr	r24
    132e:	86 95       	lsr	r24
    1330:	83 70       	andi	r24, 0x03	; 3

00001332 <.LM51>:
    1332:	81 70       	andi	r24, 0x01	; 1
    1334:	48 2f       	mov	r20, r24
    1336:	66 e0       	ldi	r22, 0x06	; 6
    1338:	82 e0       	ldi	r24, 0x02	; 2
    133a:	0e 94 4e 05 	call	0xa9c	; 0xa9c <GPIO_SetPinValue>

0000133e <.LM52>:
    133e:	ce 01       	movw	r24, r28
    1340:	81 59       	subi	r24, 0x91	; 145
    1342:	9f 4f       	sbci	r25, 0xFF	; 255
    1344:	dc 01       	movw	r26, r24
    1346:	8c 91       	ld	r24, X
    1348:	88 1f       	adc	r24, r24
    134a:	88 27       	eor	r24, r24
    134c:	88 1f       	adc	r24, r24
    134e:	48 2f       	mov	r20, r24
    1350:	67 e0       	ldi	r22, 0x07	; 7
    1352:	82 e0       	ldi	r24, 0x02	; 2
    1354:	0e 94 4e 05 	call	0xa9c	; 0xa9c <GPIO_SetPinValue>

00001358 <.LM53>:
    1358:	40 e0       	ldi	r20, 0x00	; 0
    135a:	60 e0       	ldi	r22, 0x00	; 0
    135c:	82 e0       	ldi	r24, 0x02	; 2
    135e:	0e 94 4e 05 	call	0xa9c	; 0xa9c <GPIO_SetPinValue>

00001362 <.LM54>:
    1362:	41 e0       	ldi	r20, 0x01	; 1
    1364:	62 e0       	ldi	r22, 0x02	; 2
    1366:	82 e0       	ldi	r24, 0x02	; 2
    1368:	0e 94 4e 05 	call	0xa9c	; 0xa9c <GPIO_SetPinValue>
    136c:	9e 01       	movw	r18, r28
    136e:	21 5b       	subi	r18, 0xB1	; 177
    1370:	3f 4f       	sbci	r19, 0xFF	; 255
    1372:	80 e0       	ldi	r24, 0x00	; 0
    1374:	90 e0       	ldi	r25, 0x00	; 0
    1376:	a0 e8       	ldi	r26, 0x80	; 128
    1378:	bf e3       	ldi	r27, 0x3F	; 63
    137a:	f9 01       	movw	r30, r18
    137c:	80 83       	st	Z, r24
    137e:	91 83       	std	Z+1, r25	; 0x01
    1380:	a2 83       	std	Z+2, r26	; 0x02
    1382:	b3 83       	std	Z+3, r27	; 0x03

00001384 <.LM55>:
    1384:	8e 01       	movw	r16, r28
    1386:	0d 5a       	subi	r16, 0xAD	; 173
    1388:	1f 4f       	sbci	r17, 0xFF	; 255
    138a:	ce 01       	movw	r24, r28
    138c:	81 5b       	subi	r24, 0xB1	; 177
    138e:	9f 4f       	sbci	r25, 0xFF	; 255
    1390:	2b ea       	ldi	r18, 0xAB	; 171
    1392:	3a ea       	ldi	r19, 0xAA	; 170
    1394:	4a ea       	ldi	r20, 0xAA	; 170
    1396:	5e e3       	ldi	r21, 0x3E	; 62
    1398:	dc 01       	movw	r26, r24
    139a:	6d 91       	ld	r22, X+
    139c:	7d 91       	ld	r23, X+
    139e:	8d 91       	ld	r24, X+
    13a0:	9c 91       	ld	r25, X
    13a2:	0e 94 ba 19 	call	0x3374	; 0x3374 <__mulsf3>
    13a6:	c0 58       	subi	r28, 0x80	; 128
    13a8:	df 4f       	sbci	r29, 0xFF	; 255
    13aa:	68 83       	st	Y, r22
    13ac:	79 83       	std	Y+1, r23	; 0x01
    13ae:	8a 83       	std	Y+2, r24	; 0x02
    13b0:	9b 83       	std	Y+3, r25	; 0x03
    13b2:	c0 58       	subi	r28, 0x80	; 128
    13b4:	d0 40       	sbci	r29, 0x00	; 0
    13b6:	c0 58       	subi	r28, 0x80	; 128
    13b8:	df 4f       	sbci	r29, 0xFF	; 255
    13ba:	88 81       	ld	r24, Y
    13bc:	99 81       	ldd	r25, Y+1	; 0x01
    13be:	aa 81       	ldd	r26, Y+2	; 0x02
    13c0:	bb 81       	ldd	r27, Y+3	; 0x03
    13c2:	c0 58       	subi	r28, 0x80	; 128
    13c4:	d0 40       	sbci	r29, 0x00	; 0
    13c6:	f8 01       	movw	r30, r16
    13c8:	80 83       	st	Z, r24
    13ca:	91 83       	std	Z+1, r25	; 0x01
    13cc:	a2 83       	std	Z+2, r26	; 0x02
    13ce:	b3 83       	std	Z+3, r27	; 0x03

000013d0 <.LM56>:
    13d0:	8e 01       	movw	r16, r28
    13d2:	09 5a       	subi	r16, 0xA9	; 169
    13d4:	1f 4f       	sbci	r17, 0xFF	; 255
    13d6:	ce 01       	movw	r24, r28
    13d8:	81 5b       	subi	r24, 0xB1	; 177
    13da:	9f 4f       	sbci	r25, 0xFF	; 255
    13dc:	20 e0       	ldi	r18, 0x00	; 0
    13de:	30 e0       	ldi	r19, 0x00	; 0
    13e0:	40 e8       	ldi	r20, 0x80	; 128
    13e2:	5e e3       	ldi	r21, 0x3E	; 62
    13e4:	dc 01       	movw	r26, r24
    13e6:	6d 91       	ld	r22, X+
    13e8:	7d 91       	ld	r23, X+
    13ea:	8d 91       	ld	r24, X+
    13ec:	9c 91       	ld	r25, X
    13ee:	0e 94 ba 19 	call	0x3374	; 0x3374 <__mulsf3>
    13f2:	cc 57       	subi	r28, 0x7C	; 124
    13f4:	df 4f       	sbci	r29, 0xFF	; 255
    13f6:	68 83       	st	Y, r22
    13f8:	79 83       	std	Y+1, r23	; 0x01
    13fa:	8a 83       	std	Y+2, r24	; 0x02
    13fc:	9b 83       	std	Y+3, r25	; 0x03
    13fe:	c4 58       	subi	r28, 0x84	; 132
    1400:	d0 40       	sbci	r29, 0x00	; 0
    1402:	cc 57       	subi	r28, 0x7C	; 124
    1404:	df 4f       	sbci	r29, 0xFF	; 255
    1406:	88 81       	ld	r24, Y
    1408:	99 81       	ldd	r25, Y+1	; 0x01
    140a:	aa 81       	ldd	r26, Y+2	; 0x02
    140c:	bb 81       	ldd	r27, Y+3	; 0x03
    140e:	c4 58       	subi	r28, 0x84	; 132
    1410:	d0 40       	sbci	r29, 0x00	; 0
    1412:	f8 01       	movw	r30, r16
    1414:	80 83       	st	Z, r24
    1416:	91 83       	std	Z+1, r25	; 0x01
    1418:	a2 83       	std	Z+2, r26	; 0x02
    141a:	b3 83       	std	Z+3, r27	; 0x03

0000141c <.LM57>:
    141c:	ce 01       	movw	r24, r28
    141e:	8d 5a       	subi	r24, 0xAD	; 173
    1420:	9f 4f       	sbci	r25, 0xFF	; 255
    1422:	20 e0       	ldi	r18, 0x00	; 0
    1424:	30 e0       	ldi	r19, 0x00	; 0
    1426:	40 e8       	ldi	r20, 0x80	; 128
    1428:	5f e3       	ldi	r21, 0x3F	; 63
    142a:	dc 01       	movw	r26, r24
    142c:	6d 91       	ld	r22, X+
    142e:	7d 91       	ld	r23, X+
    1430:	8d 91       	ld	r24, X+
    1432:	9c 91       	ld	r25, X
    1434:	0e 94 9a 18 	call	0x3134	; 0x3134 <__cmpsf2>
    1438:	88 23       	and	r24, r24
    143a:	3c f4       	brge	.+14     	; 0x144a <.L100>

0000143c <.LM58>:
    143c:	ce 01       	movw	r24, r28
    143e:	85 5a       	subi	r24, 0xA5	; 165
    1440:	9f 4f       	sbci	r25, 0xFF	; 255
    1442:	21 e0       	ldi	r18, 0x01	; 1
    1444:	fc 01       	movw	r30, r24
    1446:	20 83       	st	Z, r18
    1448:	a0 c1       	rjmp	.+832    	; 0x178a <.L29>

0000144a <.L100>:
    144a:	ce 01       	movw	r24, r28
    144c:	89 5a       	subi	r24, 0xA9	; 169
    144e:	9f 4f       	sbci	r25, 0xFF	; 255
    1450:	20 e0       	ldi	r18, 0x00	; 0
    1452:	3f ef       	ldi	r19, 0xFF	; 255
    1454:	4f e7       	ldi	r20, 0x7F	; 127
    1456:	57 e4       	ldi	r21, 0x47	; 71
    1458:	dc 01       	movw	r26, r24
    145a:	6d 91       	ld	r22, X+
    145c:	7d 91       	ld	r23, X+
    145e:	8d 91       	ld	r24, X+
    1460:	9c 91       	ld	r25, X
    1462:	0e 94 b5 19 	call	0x336a	; 0x336a <__gesf2>
    1466:	88 23       	and	r24, r24
    1468:	09 f0       	breq	.+2      	; 0x146c <L0^A>

0000146a <L0^A>:
    146a:	0c f4       	brge	.+2      	; 0x146e <.LM60>

0000146c <L0^A>:
    146c:	26 c1       	rjmp	.+588    	; 0x16ba <.L101>

0000146e <.LM60>:
    146e:	ce 01       	movw	r24, r28
    1470:	81 5b       	subi	r24, 0xB1	; 177
    1472:	9f 4f       	sbci	r25, 0xFF	; 255
    1474:	20 e0       	ldi	r18, 0x00	; 0
    1476:	30 e0       	ldi	r19, 0x00	; 0
    1478:	4a e7       	ldi	r20, 0x7A	; 122
    147a:	54 e4       	ldi	r21, 0x44	; 68
    147c:	fc 01       	movw	r30, r24
    147e:	60 81       	ld	r22, Z
    1480:	71 81       	ldd	r23, Z+1	; 0x01
    1482:	82 81       	ldd	r24, Z+2	; 0x02
    1484:	93 81       	ldd	r25, Z+3	; 0x03
    1486:	0e 94 9f 18 	call	0x313e	; 0x313e <__divsf3>
    148a:	c8 57       	subi	r28, 0x78	; 120
    148c:	df 4f       	sbci	r29, 0xFF	; 255
    148e:	68 83       	st	Y, r22
    1490:	79 83       	std	Y+1, r23	; 0x01
    1492:	8a 83       	std	Y+2, r24	; 0x02
    1494:	9b 83       	std	Y+3, r25	; 0x03
    1496:	c8 58       	subi	r28, 0x88	; 136
    1498:	d0 40       	sbci	r29, 0x00	; 0
    149a:	c8 57       	subi	r28, 0x78	; 120
    149c:	df 4f       	sbci	r29, 0xFF	; 255
    149e:	88 81       	ld	r24, Y
    14a0:	99 81       	ldd	r25, Y+1	; 0x01
    14a2:	aa 81       	ldd	r26, Y+2	; 0x02
    14a4:	bb 81       	ldd	r27, Y+3	; 0x03
    14a6:	c8 58       	subi	r28, 0x88	; 136
    14a8:	d0 40       	sbci	r29, 0x00	; 0
    14aa:	9e 01       	movw	r18, r28
    14ac:	24 5a       	subi	r18, 0xA4	; 164
    14ae:	3f 4f       	sbci	r19, 0xFF	; 255
    14b0:	f9 01       	movw	r30, r18
    14b2:	80 83       	st	Z, r24
    14b4:	91 83       	std	Z+1, r25	; 0x01
    14b6:	a2 83       	std	Z+2, r26	; 0x02
    14b8:	b3 83       	std	Z+3, r27	; 0x03

000014ba <.LM61>:
    14ba:	8e 01       	movw	r16, r28
    14bc:	00 5a       	subi	r16, 0xA0	; 160
    14be:	1f 4f       	sbci	r17, 0xFF	; 255
    14c0:	ce 01       	movw	r24, r28
    14c2:	84 5a       	subi	r24, 0xA4	; 164
    14c4:	9f 4f       	sbci	r25, 0xFF	; 255
    14c6:	20 e0       	ldi	r18, 0x00	; 0
    14c8:	30 e0       	ldi	r19, 0x00	; 0
    14ca:	4a e7       	ldi	r20, 0x7A	; 122
    14cc:	53 e4       	ldi	r21, 0x43	; 67
    14ce:	dc 01       	movw	r26, r24
    14d0:	6d 91       	ld	r22, X+
    14d2:	7d 91       	ld	r23, X+
    14d4:	8d 91       	ld	r24, X+
    14d6:	9c 91       	ld	r25, X
    14d8:	0e 94 ba 19 	call	0x3374	; 0x3374 <__mulsf3>
    14dc:	c4 57       	subi	r28, 0x74	; 116
    14de:	df 4f       	sbci	r29, 0xFF	; 255
    14e0:	68 83       	st	Y, r22
    14e2:	79 83       	std	Y+1, r23	; 0x01
    14e4:	8a 83       	std	Y+2, r24	; 0x02
    14e6:	9b 83       	std	Y+3, r25	; 0x03
    14e8:	cc 58       	subi	r28, 0x8C	; 140
    14ea:	d0 40       	sbci	r29, 0x00	; 0
    14ec:	c4 57       	subi	r28, 0x74	; 116
    14ee:	df 4f       	sbci	r29, 0xFF	; 255
    14f0:	88 81       	ld	r24, Y
    14f2:	99 81       	ldd	r25, Y+1	; 0x01
    14f4:	aa 81       	ldd	r26, Y+2	; 0x02
    14f6:	bb 81       	ldd	r27, Y+3	; 0x03
    14f8:	cc 58       	subi	r28, 0x8C	; 140
    14fa:	d0 40       	sbci	r29, 0x00	; 0
    14fc:	f8 01       	movw	r30, r16
    14fe:	80 83       	st	Z, r24
    1500:	91 83       	std	Z+1, r25	; 0x01
    1502:	a2 83       	std	Z+2, r26	; 0x02
    1504:	b3 83       	std	Z+3, r27	; 0x03

00001506 <.LM62>:
    1506:	ce 01       	movw	r24, r28
    1508:	80 5a       	subi	r24, 0xA0	; 160
    150a:	9f 4f       	sbci	r25, 0xFF	; 255
    150c:	20 e0       	ldi	r18, 0x00	; 0
    150e:	30 e0       	ldi	r19, 0x00	; 0
    1510:	40 e8       	ldi	r20, 0x80	; 128
    1512:	5f e3       	ldi	r21, 0x3F	; 63
    1514:	dc 01       	movw	r26, r24
    1516:	6d 91       	ld	r22, X+
    1518:	7d 91       	ld	r23, X+
    151a:	8d 91       	ld	r24, X+
    151c:	9c 91       	ld	r25, X
    151e:	0e 94 9a 18 	call	0x3134	; 0x3134 <__cmpsf2>
    1522:	88 23       	and	r24, r24
    1524:	4c f4       	brge	.+18     	; 0x1538 <.L102>

00001526 <.LM63>:
    1526:	ce 01       	movw	r24, r28
    1528:	8c 59       	subi	r24, 0x9C	; 156
    152a:	9f 4f       	sbci	r25, 0xFF	; 255
    152c:	21 e0       	ldi	r18, 0x01	; 1
    152e:	30 e0       	ldi	r19, 0x00	; 0
    1530:	fc 01       	movw	r30, r24
    1532:	31 83       	std	Z+1, r19	; 0x01
    1534:	20 83       	st	Z, r18
    1536:	a5 c0       	rjmp	.+330    	; 0x1682 <.L34>

00001538 <.L102>:
    1538:	ce 01       	movw	r24, r28
    153a:	80 5a       	subi	r24, 0xA0	; 160
    153c:	9f 4f       	sbci	r25, 0xFF	; 255
    153e:	20 e0       	ldi	r18, 0x00	; 0
    1540:	3f ef       	ldi	r19, 0xFF	; 255
    1542:	4f e7       	ldi	r20, 0x7F	; 127
    1544:	57 e4       	ldi	r21, 0x47	; 71
    1546:	dc 01       	movw	r26, r24
    1548:	6d 91       	ld	r22, X+
    154a:	7d 91       	ld	r23, X+
    154c:	8d 91       	ld	r24, X+
    154e:	9c 91       	ld	r25, X
    1550:	0e 94 b5 19 	call	0x336a	; 0x336a <__gesf2>
    1554:	88 23       	and	r24, r24
    1556:	09 f0       	breq	.+2      	; 0x155a <L0^A>

00001558 <L0^A>:
    1558:	0c f4       	brge	.+2      	; 0x155c <.LM65>

0000155a <L0^A>:
    155a:	75 c0       	rjmp	.+234    	; 0x1646 <.L103>

0000155c <.LM65>:
    155c:	ce 01       	movw	r24, r28
    155e:	84 5a       	subi	r24, 0xA4	; 164
    1560:	9f 4f       	sbci	r25, 0xFF	; 255
    1562:	20 e0       	ldi	r18, 0x00	; 0
    1564:	30 e0       	ldi	r19, 0x00	; 0
    1566:	40 e2       	ldi	r20, 0x20	; 32
    1568:	51 e4       	ldi	r21, 0x41	; 65
    156a:	fc 01       	movw	r30, r24
    156c:	60 81       	ld	r22, Z
    156e:	71 81       	ldd	r23, Z+1	; 0x01
    1570:	82 81       	ldd	r24, Z+2	; 0x02
    1572:	93 81       	ldd	r25, Z+3	; 0x03
    1574:	0e 94 ba 19 	call	0x3374	; 0x3374 <__mulsf3>
    1578:	c0 57       	subi	r28, 0x70	; 112
    157a:	df 4f       	sbci	r29, 0xFF	; 255
    157c:	68 83       	st	Y, r22
    157e:	79 83       	std	Y+1, r23	; 0x01
    1580:	8a 83       	std	Y+2, r24	; 0x02
    1582:	9b 83       	std	Y+3, r25	; 0x03
    1584:	c0 59       	subi	r28, 0x90	; 144
    1586:	d0 40       	sbci	r29, 0x00	; 0
    1588:	c0 57       	subi	r28, 0x70	; 112
    158a:	df 4f       	sbci	r29, 0xFF	; 255
    158c:	88 81       	ld	r24, Y
    158e:	99 81       	ldd	r25, Y+1	; 0x01
    1590:	aa 81       	ldd	r26, Y+2	; 0x02
    1592:	bb 81       	ldd	r27, Y+3	; 0x03
    1594:	c0 59       	subi	r28, 0x90	; 144
    1596:	d0 40       	sbci	r29, 0x00	; 0
    1598:	c4 58       	subi	r28, 0x84	; 132
    159a:	df 4f       	sbci	r29, 0xFF	; 255
    159c:	88 83       	st	Y, r24
    159e:	99 83       	std	Y+1, r25	; 0x01
    15a0:	aa 83       	std	Y+2, r26	; 0x02
    15a2:	bb 83       	std	Y+3, r27	; 0x03
    15a4:	cc 57       	subi	r28, 0x7C	; 124
    15a6:	d0 40       	sbci	r29, 0x00	; 0

000015a8 <.LM66>:
    15a8:	8e 01       	movw	r16, r28
    15aa:	0c 59       	subi	r16, 0x9C	; 156
    15ac:	1f 4f       	sbci	r17, 0xFF	; 255
    15ae:	c4 58       	subi	r28, 0x84	; 132
    15b0:	df 4f       	sbci	r29, 0xFF	; 255
    15b2:	68 81       	ld	r22, Y
    15b4:	79 81       	ldd	r23, Y+1	; 0x01
    15b6:	8a 81       	ldd	r24, Y+2	; 0x02
    15b8:	9b 81       	ldd	r25, Y+3	; 0x03
    15ba:	cc 57       	subi	r28, 0x7C	; 124
    15bc:	d0 40       	sbci	r29, 0x00	; 0
    15be:	0e 94 11 19 	call	0x3222	; 0x3222 <__fixunssfsi>
    15c2:	cc 56       	subi	r28, 0x6C	; 108
    15c4:	df 4f       	sbci	r29, 0xFF	; 255
    15c6:	68 83       	st	Y, r22
    15c8:	79 83       	std	Y+1, r23	; 0x01
    15ca:	8a 83       	std	Y+2, r24	; 0x02
    15cc:	9b 83       	std	Y+3, r25	; 0x03
    15ce:	c4 59       	subi	r28, 0x94	; 148
    15d0:	d0 40       	sbci	r29, 0x00	; 0
    15d2:	cc 56       	subi	r28, 0x6C	; 108
    15d4:	df 4f       	sbci	r29, 0xFF	; 255
    15d6:	e8 81       	ld	r30, Y
    15d8:	f9 81       	ldd	r31, Y+1	; 0x01
    15da:	c4 59       	subi	r28, 0x94	; 148
    15dc:	d0 40       	sbci	r29, 0x00	; 0
    15de:	d8 01       	movw	r26, r16
    15e0:	11 96       	adiw	r26, 0x01	; 1
    15e2:	fc 93       	st	X, r31
    15e4:	ee 93       	st	-X, r30

000015e6 <.LM67>:
    15e6:	26 c0       	rjmp	.+76     	; 0x1634 <.L37>

000015e8 <.L38>:
    15e8:	ce 01       	movw	r24, r28
    15ea:	8a 59       	subi	r24, 0x9A	; 154
    15ec:	9f 4f       	sbci	r25, 0xFF	; 255
    15ee:	29 e1       	ldi	r18, 0x19	; 25
    15f0:	30 e0       	ldi	r19, 0x00	; 0
    15f2:	dc 01       	movw	r26, r24
    15f4:	2d 93       	st	X+, r18
    15f6:	3c 93       	st	X, r19

000015f8 <.LM68>:
    15f8:	ce 01       	movw	r24, r28
    15fa:	8a 59       	subi	r24, 0x9A	; 154
    15fc:	9f 4f       	sbci	r25, 0xFF	; 255
    15fe:	fc 01       	movw	r30, r24
    1600:	80 81       	ld	r24, Z
    1602:	91 81       	ldd	r25, Z+1	; 0x01

00001604 <.L1^B5>:
    1604:	01 97       	sbiw	r24, 0x01	; 1
    1606:	f1 f7       	brne	.-4      	; 0x1604 <.L1^B5>
    1608:	9e 01       	movw	r18, r28
    160a:	2a 59       	subi	r18, 0x9A	; 154
    160c:	3f 4f       	sbci	r19, 0xFF	; 255
    160e:	d9 01       	movw	r26, r18
    1610:	8d 93       	st	X+, r24
    1612:	9c 93       	st	X, r25

00001614 <.LM69>:
	...

00001616 <.LM70>:
    1616:	ce 01       	movw	r24, r28
    1618:	8c 59       	subi	r24, 0x9C	; 156
    161a:	9f 4f       	sbci	r25, 0xFF	; 255
    161c:	9e 01       	movw	r18, r28
    161e:	2c 59       	subi	r18, 0x9C	; 156
    1620:	3f 4f       	sbci	r19, 0xFF	; 255
    1622:	f9 01       	movw	r30, r18
    1624:	20 81       	ld	r18, Z
    1626:	31 81       	ldd	r19, Z+1	; 0x01
    1628:	21 50       	subi	r18, 0x01	; 1
    162a:	31 09       	sbc	r19, r1
    162c:	dc 01       	movw	r26, r24
    162e:	11 96       	adiw	r26, 0x01	; 1
    1630:	3c 93       	st	X, r19
    1632:	2e 93       	st	-X, r18

00001634 <.L37>:
    1634:	ce 01       	movw	r24, r28
    1636:	8c 59       	subi	r24, 0x9C	; 156
    1638:	9f 4f       	sbci	r25, 0xFF	; 255
    163a:	fc 01       	movw	r30, r24
    163c:	80 81       	ld	r24, Z
    163e:	91 81       	ldd	r25, Z+1	; 0x01
    1640:	00 97       	sbiw	r24, 0x00	; 0
    1642:	91 f6       	brne	.-92     	; 0x15e8 <.L38>

00001644 <.LM72>:
    1644:	a2 c0       	rjmp	.+324    	; 0x178a <.L29>

00001646 <.L103>:
    1646:	8e 01       	movw	r16, r28
    1648:	0c 59       	subi	r16, 0x9C	; 156
    164a:	1f 4f       	sbci	r17, 0xFF	; 255
    164c:	ce 01       	movw	r24, r28
    164e:	80 5a       	subi	r24, 0xA0	; 160
    1650:	9f 4f       	sbci	r25, 0xFF	; 255
    1652:	dc 01       	movw	r26, r24
    1654:	6d 91       	ld	r22, X+
    1656:	7d 91       	ld	r23, X+
    1658:	8d 91       	ld	r24, X+
    165a:	9c 91       	ld	r25, X
    165c:	0e 94 11 19 	call	0x3222	; 0x3222 <__fixunssfsi>
    1660:	c8 56       	subi	r28, 0x68	; 104
    1662:	df 4f       	sbci	r29, 0xFF	; 255
    1664:	68 83       	st	Y, r22
    1666:	79 83       	std	Y+1, r23	; 0x01
    1668:	8a 83       	std	Y+2, r24	; 0x02
    166a:	9b 83       	std	Y+3, r25	; 0x03
    166c:	c8 59       	subi	r28, 0x98	; 152
    166e:	d0 40       	sbci	r29, 0x00	; 0
    1670:	c8 56       	subi	r28, 0x68	; 104
    1672:	df 4f       	sbci	r29, 0xFF	; 255
    1674:	88 81       	ld	r24, Y
    1676:	99 81       	ldd	r25, Y+1	; 0x01
    1678:	c8 59       	subi	r28, 0x98	; 152
    167a:	d0 40       	sbci	r29, 0x00	; 0
    167c:	f8 01       	movw	r30, r16
    167e:	91 83       	std	Z+1, r25	; 0x01
    1680:	80 83       	st	Z, r24

00001682 <.L34>:
    1682:	ce 01       	movw	r24, r28
    1684:	88 59       	subi	r24, 0x98	; 152
    1686:	9f 4f       	sbci	r25, 0xFF	; 255
    1688:	9e 01       	movw	r18, r28
    168a:	2c 59       	subi	r18, 0x9C	; 156
    168c:	3f 4f       	sbci	r19, 0xFF	; 255
    168e:	d9 01       	movw	r26, r18
    1690:	2d 91       	ld	r18, X+
    1692:	3c 91       	ld	r19, X
    1694:	fc 01       	movw	r30, r24
    1696:	31 83       	std	Z+1, r19	; 0x01
    1698:	20 83       	st	Z, r18

0000169a <.LM74>:
    169a:	ce 01       	movw	r24, r28
    169c:	88 59       	subi	r24, 0x98	; 152
    169e:	9f 4f       	sbci	r25, 0xFF	; 255
    16a0:	dc 01       	movw	r26, r24
    16a2:	8d 91       	ld	r24, X+
    16a4:	9c 91       	ld	r25, X
    16a6:	11 97       	sbiw	r26, 0x01	; 1

000016a8 <.L1^B6>:
    16a8:	01 97       	sbiw	r24, 0x01	; 1
    16aa:	f1 f7       	brne	.-4      	; 0x16a8 <.L1^B6>
    16ac:	9e 01       	movw	r18, r28
    16ae:	28 59       	subi	r18, 0x98	; 152
    16b0:	3f 4f       	sbci	r19, 0xFF	; 255
    16b2:	f9 01       	movw	r30, r18
    16b4:	91 83       	std	Z+1, r25	; 0x01
    16b6:	80 83       	st	Z, r24

000016b8 <.LM75>:
    16b8:	68 c0       	rjmp	.+208    	; 0x178a <.L29>

000016ba <.L101>:
    16ba:	ce 01       	movw	r24, r28
    16bc:	8d 5a       	subi	r24, 0xAD	; 173
    16be:	9f 4f       	sbci	r25, 0xFF	; 255
    16c0:	20 e0       	ldi	r18, 0x00	; 0
    16c2:	30 e0       	ldi	r19, 0x00	; 0
    16c4:	4f e7       	ldi	r20, 0x7F	; 127
    16c6:	53 e4       	ldi	r21, 0x43	; 67
    16c8:	dc 01       	movw	r26, r24
    16ca:	6d 91       	ld	r22, X+
    16cc:	7d 91       	ld	r23, X+
    16ce:	8d 91       	ld	r24, X+
    16d0:	9c 91       	ld	r25, X
    16d2:	0e 94 b5 19 	call	0x336a	; 0x336a <__gesf2>
    16d6:	88 23       	and	r24, r24
    16d8:	e1 f1       	breq	.+120    	; 0x1752 <.L104>
    16da:	dc f1       	brlt	.+118    	; 0x1752 <.L104>

000016dc <.LM77>:
    16dc:	8e 01       	movw	r16, r28
    16de:	06 59       	subi	r16, 0x96	; 150
    16e0:	1f 4f       	sbci	r17, 0xFF	; 255
    16e2:	ce 01       	movw	r24, r28
    16e4:	89 5a       	subi	r24, 0xA9	; 169
    16e6:	9f 4f       	sbci	r25, 0xFF	; 255
    16e8:	fc 01       	movw	r30, r24
    16ea:	60 81       	ld	r22, Z
    16ec:	71 81       	ldd	r23, Z+1	; 0x01
    16ee:	82 81       	ldd	r24, Z+2	; 0x02
    16f0:	93 81       	ldd	r25, Z+3	; 0x03
    16f2:	0e 94 11 19 	call	0x3222	; 0x3222 <__fixunssfsi>
    16f6:	c4 56       	subi	r28, 0x64	; 100
    16f8:	df 4f       	sbci	r29, 0xFF	; 255
    16fa:	68 83       	st	Y, r22
    16fc:	79 83       	std	Y+1, r23	; 0x01
    16fe:	8a 83       	std	Y+2, r24	; 0x02
    1700:	9b 83       	std	Y+3, r25	; 0x03
    1702:	cc 59       	subi	r28, 0x9C	; 156
    1704:	d0 40       	sbci	r29, 0x00	; 0
    1706:	c4 56       	subi	r28, 0x64	; 100
    1708:	df 4f       	sbci	r29, 0xFF	; 255
    170a:	e8 81       	ld	r30, Y
    170c:	f9 81       	ldd	r31, Y+1	; 0x01
    170e:	cc 59       	subi	r28, 0x9C	; 156
    1710:	d0 40       	sbci	r29, 0x00	; 0
    1712:	d8 01       	movw	r26, r16
    1714:	ed 93       	st	X+, r30
    1716:	fc 93       	st	X, r31
    1718:	ce 01       	movw	r24, r28
    171a:	84 59       	subi	r24, 0x94	; 148
    171c:	9f 4f       	sbci	r25, 0xFF	; 255
    171e:	9e 01       	movw	r18, r28
    1720:	26 59       	subi	r18, 0x96	; 150
    1722:	3f 4f       	sbci	r19, 0xFF	; 255
    1724:	d9 01       	movw	r26, r18
    1726:	2d 91       	ld	r18, X+
    1728:	3c 91       	ld	r19, X
    172a:	fc 01       	movw	r30, r24
    172c:	31 83       	std	Z+1, r19	; 0x01
    172e:	20 83       	st	Z, r18

00001730 <.LM78>:
    1730:	ce 01       	movw	r24, r28
    1732:	84 59       	subi	r24, 0x94	; 148
    1734:	9f 4f       	sbci	r25, 0xFF	; 255
    1736:	dc 01       	movw	r26, r24
    1738:	8d 91       	ld	r24, X+
    173a:	9c 91       	ld	r25, X
    173c:	11 97       	sbiw	r26, 0x01	; 1

0000173e <.L1^B7>:
    173e:	01 97       	sbiw	r24, 0x01	; 1
    1740:	f1 f7       	brne	.-4      	; 0x173e <.L1^B7>
    1742:	9e 01       	movw	r18, r28
    1744:	24 59       	subi	r18, 0x94	; 148
    1746:	3f 4f       	sbci	r19, 0xFF	; 255
    1748:	f9 01       	movw	r30, r18
    174a:	91 83       	std	Z+1, r25	; 0x01
    174c:	80 83       	st	Z, r24

0000174e <.LM79>:
	...

00001750 <.LM80>:
    1750:	34 c0       	rjmp	.+104    	; 0x17ba <.L42>

00001752 <.L104>:
    1752:	8e 01       	movw	r16, r28
    1754:	05 5a       	subi	r16, 0xA5	; 165
    1756:	1f 4f       	sbci	r17, 0xFF	; 255
    1758:	ce 01       	movw	r24, r28
    175a:	8d 5a       	subi	r24, 0xAD	; 173
    175c:	9f 4f       	sbci	r25, 0xFF	; 255
    175e:	dc 01       	movw	r26, r24
    1760:	6d 91       	ld	r22, X+
    1762:	7d 91       	ld	r23, X+
    1764:	8d 91       	ld	r24, X+
    1766:	9c 91       	ld	r25, X
    1768:	0e 94 11 19 	call	0x3222	; 0x3222 <__fixunssfsi>
    176c:	c0 56       	subi	r28, 0x60	; 96
    176e:	df 4f       	sbci	r29, 0xFF	; 255
    1770:	68 83       	st	Y, r22
    1772:	79 83       	std	Y+1, r23	; 0x01
    1774:	8a 83       	std	Y+2, r24	; 0x02
    1776:	9b 83       	std	Y+3, r25	; 0x03
    1778:	c0 5a       	subi	r28, 0xA0	; 160
    177a:	d0 40       	sbci	r29, 0x00	; 0
    177c:	c0 56       	subi	r28, 0x60	; 96
    177e:	df 4f       	sbci	r29, 0xFF	; 255
    1780:	88 81       	ld	r24, Y
    1782:	c0 5a       	subi	r28, 0xA0	; 160
    1784:	d0 40       	sbci	r29, 0x00	; 0
    1786:	f8 01       	movw	r30, r16
    1788:	80 83       	st	Z, r24

0000178a <.L29>:
    178a:	ce 01       	movw	r24, r28
    178c:	82 59       	subi	r24, 0x92	; 146
    178e:	9f 4f       	sbci	r25, 0xFF	; 255
    1790:	9e 01       	movw	r18, r28
    1792:	25 5a       	subi	r18, 0xA5	; 165
    1794:	3f 4f       	sbci	r19, 0xFF	; 255
    1796:	d9 01       	movw	r26, r18
    1798:	2c 91       	ld	r18, X
    179a:	fc 01       	movw	r30, r24
    179c:	20 83       	st	Z, r18

0000179e <.LM82>:
    179e:	ce 01       	movw	r24, r28
    17a0:	82 59       	subi	r24, 0x92	; 146
    17a2:	9f 4f       	sbci	r25, 0xFF	; 255
    17a4:	dc 01       	movw	r26, r24
    17a6:	8c 91       	ld	r24, X
    17a8:	28 2f       	mov	r18, r24

000017aa <.L1^B8>:
    17aa:	2a 95       	dec	r18
    17ac:	f1 f7       	brne	.-4      	; 0x17aa <.L1^B8>
    17ae:	ce 01       	movw	r24, r28
    17b0:	82 59       	subi	r24, 0x92	; 146
    17b2:	9f 4f       	sbci	r25, 0xFF	; 255
    17b4:	fc 01       	movw	r30, r24
    17b6:	20 83       	st	Z, r18

000017b8 <.LM83>:
	...

000017ba <.L42>:
    17ba:	40 e0       	ldi	r20, 0x00	; 0
    17bc:	62 e0       	ldi	r22, 0x02	; 2
    17be:	82 e0       	ldi	r24, 0x02	; 2
    17c0:	0e 94 4e 05 	call	0xa9c	; 0xa9c <GPIO_SetPinValue>
    17c4:	80 e0       	ldi	r24, 0x00	; 0
    17c6:	90 e0       	ldi	r25, 0x00	; 0
    17c8:	a8 e4       	ldi	r26, 0x48	; 72
    17ca:	b3 e4       	ldi	r27, 0x43	; 67
    17cc:	8f a7       	std	Y+47, r24	; 0x2f
    17ce:	98 ab       	std	Y+48, r25	; 0x30
    17d0:	a9 ab       	std	Y+49, r26	; 0x31
    17d2:	ba ab       	std	Y+50, r27	; 0x32

000017d4 <.LM85>:
    17d4:	2b ea       	ldi	r18, 0xAB	; 171
    17d6:	3a ea       	ldi	r19, 0xAA	; 170
    17d8:	4a ea       	ldi	r20, 0xAA	; 170
    17da:	5e e3       	ldi	r21, 0x3E	; 62
    17dc:	6f a5       	ldd	r22, Y+47	; 0x2f
    17de:	78 a9       	ldd	r23, Y+48	; 0x30
    17e0:	89 a9       	ldd	r24, Y+49	; 0x31
    17e2:	9a a9       	ldd	r25, Y+50	; 0x32
    17e4:	0e 94 ba 19 	call	0x3374	; 0x3374 <__mulsf3>
    17e8:	cc 55       	subi	r28, 0x5C	; 92
    17ea:	df 4f       	sbci	r29, 0xFF	; 255
    17ec:	68 83       	st	Y, r22
    17ee:	79 83       	std	Y+1, r23	; 0x01
    17f0:	8a 83       	std	Y+2, r24	; 0x02
    17f2:	9b 83       	std	Y+3, r25	; 0x03
    17f4:	c4 5a       	subi	r28, 0xA4	; 164
    17f6:	d0 40       	sbci	r29, 0x00	; 0
    17f8:	cc 55       	subi	r28, 0x5C	; 92
    17fa:	df 4f       	sbci	r29, 0xFF	; 255
    17fc:	88 81       	ld	r24, Y
    17fe:	99 81       	ldd	r25, Y+1	; 0x01
    1800:	aa 81       	ldd	r26, Y+2	; 0x02
    1802:	bb 81       	ldd	r27, Y+3	; 0x03
    1804:	c4 5a       	subi	r28, 0xA4	; 164
    1806:	d0 40       	sbci	r29, 0x00	; 0
    1808:	8b ab       	std	Y+51, r24	; 0x33
    180a:	9c ab       	std	Y+52, r25	; 0x34
    180c:	ad ab       	std	Y+53, r26	; 0x35
    180e:	be ab       	std	Y+54, r27	; 0x36

00001810 <.LM86>:
    1810:	20 e0       	ldi	r18, 0x00	; 0
    1812:	30 e0       	ldi	r19, 0x00	; 0
    1814:	40 e8       	ldi	r20, 0x80	; 128
    1816:	5e e3       	ldi	r21, 0x3E	; 62
    1818:	6f a5       	ldd	r22, Y+47	; 0x2f
    181a:	78 a9       	ldd	r23, Y+48	; 0x30
    181c:	89 a9       	ldd	r24, Y+49	; 0x31
    181e:	9a a9       	ldd	r25, Y+50	; 0x32
    1820:	0e 94 ba 19 	call	0x3374	; 0x3374 <__mulsf3>
    1824:	c8 55       	subi	r28, 0x58	; 88
    1826:	df 4f       	sbci	r29, 0xFF	; 255
    1828:	68 83       	st	Y, r22
    182a:	79 83       	std	Y+1, r23	; 0x01
    182c:	8a 83       	std	Y+2, r24	; 0x02
    182e:	9b 83       	std	Y+3, r25	; 0x03
    1830:	c8 5a       	subi	r28, 0xA8	; 168
    1832:	d0 40       	sbci	r29, 0x00	; 0
    1834:	c8 55       	subi	r28, 0x58	; 88
    1836:	df 4f       	sbci	r29, 0xFF	; 255
    1838:	88 81       	ld	r24, Y
    183a:	99 81       	ldd	r25, Y+1	; 0x01
    183c:	aa 81       	ldd	r26, Y+2	; 0x02
    183e:	bb 81       	ldd	r27, Y+3	; 0x03
    1840:	c8 5a       	subi	r28, 0xA8	; 168
    1842:	d0 40       	sbci	r29, 0x00	; 0
    1844:	8f ab       	std	Y+55, r24	; 0x37
    1846:	98 af       	std	Y+56, r25	; 0x38
    1848:	a9 af       	std	Y+57, r26	; 0x39
    184a:	ba af       	std	Y+58, r27	; 0x3a

0000184c <.LM87>:
    184c:	20 e0       	ldi	r18, 0x00	; 0
    184e:	30 e0       	ldi	r19, 0x00	; 0
    1850:	40 e8       	ldi	r20, 0x80	; 128
    1852:	5f e3       	ldi	r21, 0x3F	; 63
    1854:	6b a9       	ldd	r22, Y+51	; 0x33
    1856:	7c a9       	ldd	r23, Y+52	; 0x34
    1858:	8d a9       	ldd	r24, Y+53	; 0x35
    185a:	9e a9       	ldd	r25, Y+54	; 0x36
    185c:	0e 94 9a 18 	call	0x3134	; 0x3134 <__cmpsf2>
    1860:	88 23       	and	r24, r24
    1862:	1c f4       	brge	.+6      	; 0x186a <.L105>

00001864 <.LM88>:
    1864:	81 e0       	ldi	r24, 0x01	; 1
    1866:	8b af       	std	Y+59, r24	; 0x3b
    1868:	78 c1       	rjmp	.+752    	; 0x1b5a <.L45>

0000186a <.L105>:
    186a:	20 e0       	ldi	r18, 0x00	; 0
    186c:	3f ef       	ldi	r19, 0xFF	; 255
    186e:	4f e7       	ldi	r20, 0x7F	; 127
    1870:	57 e4       	ldi	r21, 0x47	; 71
    1872:	6f a9       	ldd	r22, Y+55	; 0x37
    1874:	78 ad       	ldd	r23, Y+56	; 0x38
    1876:	89 ad       	ldd	r24, Y+57	; 0x39
    1878:	9a ad       	ldd	r25, Y+58	; 0x3a
    187a:	0e 94 b5 19 	call	0x336a	; 0x336a <__gesf2>
    187e:	88 23       	and	r24, r24
    1880:	09 f0       	breq	.+2      	; 0x1884 <L0^A>

00001882 <L0^A>:
    1882:	0c f4       	brge	.+2      	; 0x1886 <.LM90>

00001884 <L0^A>:
    1884:	12 c1       	rjmp	.+548    	; 0x1aaa <.L106>

00001886 <.LM90>:
    1886:	20 e0       	ldi	r18, 0x00	; 0
    1888:	30 e0       	ldi	r19, 0x00	; 0
    188a:	4a e7       	ldi	r20, 0x7A	; 122
    188c:	54 e4       	ldi	r21, 0x44	; 68
    188e:	6f a5       	ldd	r22, Y+47	; 0x2f
    1890:	78 a9       	ldd	r23, Y+48	; 0x30
    1892:	89 a9       	ldd	r24, Y+49	; 0x31
    1894:	9a a9       	ldd	r25, Y+50	; 0x32
    1896:	0e 94 9f 18 	call	0x313e	; 0x313e <__divsf3>
    189a:	c4 55       	subi	r28, 0x54	; 84
    189c:	df 4f       	sbci	r29, 0xFF	; 255
    189e:	68 83       	st	Y, r22
    18a0:	79 83       	std	Y+1, r23	; 0x01
    18a2:	8a 83       	std	Y+2, r24	; 0x02
    18a4:	9b 83       	std	Y+3, r25	; 0x03
    18a6:	cc 5a       	subi	r28, 0xAC	; 172
    18a8:	d0 40       	sbci	r29, 0x00	; 0
    18aa:	c4 55       	subi	r28, 0x54	; 84
    18ac:	df 4f       	sbci	r29, 0xFF	; 255
    18ae:	88 81       	ld	r24, Y
    18b0:	99 81       	ldd	r25, Y+1	; 0x01
    18b2:	aa 81       	ldd	r26, Y+2	; 0x02
    18b4:	bb 81       	ldd	r27, Y+3	; 0x03
    18b6:	cc 5a       	subi	r28, 0xAC	; 172
    18b8:	d0 40       	sbci	r29, 0x00	; 0
    18ba:	8c af       	std	Y+60, r24	; 0x3c
    18bc:	9d af       	std	Y+61, r25	; 0x3d
    18be:	ae af       	std	Y+62, r26	; 0x3e
    18c0:	bf af       	std	Y+63, r27	; 0x3f

000018c2 <.LM91>:
    18c2:	8e 01       	movw	r16, r28
    18c4:	00 5c       	subi	r16, 0xC0	; 192
    18c6:	1f 4f       	sbci	r17, 0xFF	; 255
    18c8:	20 e0       	ldi	r18, 0x00	; 0
    18ca:	30 e0       	ldi	r19, 0x00	; 0
    18cc:	4a e7       	ldi	r20, 0x7A	; 122
    18ce:	53 e4       	ldi	r21, 0x43	; 67
    18d0:	6c ad       	ldd	r22, Y+60	; 0x3c
    18d2:	7d ad       	ldd	r23, Y+61	; 0x3d
    18d4:	8e ad       	ldd	r24, Y+62	; 0x3e
    18d6:	9f ad       	ldd	r25, Y+63	; 0x3f
    18d8:	0e 94 ba 19 	call	0x3374	; 0x3374 <__mulsf3>
    18dc:	c0 55       	subi	r28, 0x50	; 80
    18de:	df 4f       	sbci	r29, 0xFF	; 255
    18e0:	68 83       	st	Y, r22
    18e2:	79 83       	std	Y+1, r23	; 0x01
    18e4:	8a 83       	std	Y+2, r24	; 0x02
    18e6:	9b 83       	std	Y+3, r25	; 0x03
    18e8:	c0 5b       	subi	r28, 0xB0	; 176
    18ea:	d0 40       	sbci	r29, 0x00	; 0
    18ec:	c0 55       	subi	r28, 0x50	; 80
    18ee:	df 4f       	sbci	r29, 0xFF	; 255
    18f0:	88 81       	ld	r24, Y
    18f2:	99 81       	ldd	r25, Y+1	; 0x01
    18f4:	aa 81       	ldd	r26, Y+2	; 0x02
    18f6:	bb 81       	ldd	r27, Y+3	; 0x03
    18f8:	c0 5b       	subi	r28, 0xB0	; 176
    18fa:	d0 40       	sbci	r29, 0x00	; 0
    18fc:	f8 01       	movw	r30, r16
    18fe:	80 83       	st	Z, r24
    1900:	91 83       	std	Z+1, r25	; 0x01
    1902:	a2 83       	std	Z+2, r26	; 0x02
    1904:	b3 83       	std	Z+3, r27	; 0x03

00001906 <.LM92>:
    1906:	ce 01       	movw	r24, r28
    1908:	80 5c       	subi	r24, 0xC0	; 192
    190a:	9f 4f       	sbci	r25, 0xFF	; 255
    190c:	20 e0       	ldi	r18, 0x00	; 0
    190e:	30 e0       	ldi	r19, 0x00	; 0
    1910:	40 e8       	ldi	r20, 0x80	; 128
    1912:	5f e3       	ldi	r21, 0x3F	; 63
    1914:	dc 01       	movw	r26, r24
    1916:	6d 91       	ld	r22, X+
    1918:	7d 91       	ld	r23, X+
    191a:	8d 91       	ld	r24, X+
    191c:	9c 91       	ld	r25, X
    191e:	0e 94 9a 18 	call	0x3134	; 0x3134 <__cmpsf2>
    1922:	88 23       	and	r24, r24
    1924:	4c f4       	brge	.+18     	; 0x1938 <.L107>

00001926 <.LM93>:
    1926:	ce 01       	movw	r24, r28
    1928:	8c 5b       	subi	r24, 0xBC	; 188
    192a:	9f 4f       	sbci	r25, 0xFF	; 255
    192c:	21 e0       	ldi	r18, 0x01	; 1
    192e:	30 e0       	ldi	r19, 0x00	; 0
    1930:	fc 01       	movw	r30, r24
    1932:	31 83       	std	Z+1, r19	; 0x01
    1934:	20 83       	st	Z, r18
    1936:	9d c0       	rjmp	.+314    	; 0x1a72 <.L50>

00001938 <.L107>:
    1938:	ce 01       	movw	r24, r28
    193a:	80 5c       	subi	r24, 0xC0	; 192
    193c:	9f 4f       	sbci	r25, 0xFF	; 255
    193e:	20 e0       	ldi	r18, 0x00	; 0
    1940:	3f ef       	ldi	r19, 0xFF	; 255
    1942:	4f e7       	ldi	r20, 0x7F	; 127
    1944:	57 e4       	ldi	r21, 0x47	; 71
    1946:	dc 01       	movw	r26, r24
    1948:	6d 91       	ld	r22, X+
    194a:	7d 91       	ld	r23, X+
    194c:	8d 91       	ld	r24, X+
    194e:	9c 91       	ld	r25, X
    1950:	0e 94 b5 19 	call	0x336a	; 0x336a <__gesf2>
    1954:	88 23       	and	r24, r24
    1956:	09 f0       	breq	.+2      	; 0x195a <L0^A>

00001958 <L0^A>:
    1958:	0c f4       	brge	.+2      	; 0x195c <.LM95>

0000195a <L0^A>:
    195a:	6d c0       	rjmp	.+218    	; 0x1a36 <.L108>

0000195c <.LM95>:
    195c:	20 e0       	ldi	r18, 0x00	; 0
    195e:	30 e0       	ldi	r19, 0x00	; 0
    1960:	40 e2       	ldi	r20, 0x20	; 32
    1962:	51 e4       	ldi	r21, 0x41	; 65
    1964:	6c ad       	ldd	r22, Y+60	; 0x3c
    1966:	7d ad       	ldd	r23, Y+61	; 0x3d
    1968:	8e ad       	ldd	r24, Y+62	; 0x3e
    196a:	9f ad       	ldd	r25, Y+63	; 0x3f
    196c:	0e 94 ba 19 	call	0x3374	; 0x3374 <__mulsf3>
    1970:	cc 54       	subi	r28, 0x4C	; 76
    1972:	df 4f       	sbci	r29, 0xFF	; 255
    1974:	68 83       	st	Y, r22
    1976:	79 83       	std	Y+1, r23	; 0x01
    1978:	8a 83       	std	Y+2, r24	; 0x02
    197a:	9b 83       	std	Y+3, r25	; 0x03
    197c:	c4 5b       	subi	r28, 0xB4	; 180
    197e:	d0 40       	sbci	r29, 0x00	; 0
    1980:	cc 54       	subi	r28, 0x4C	; 76
    1982:	df 4f       	sbci	r29, 0xFF	; 255
    1984:	88 81       	ld	r24, Y
    1986:	99 81       	ldd	r25, Y+1	; 0x01
    1988:	aa 81       	ldd	r26, Y+2	; 0x02
    198a:	bb 81       	ldd	r27, Y+3	; 0x03
    198c:	c4 5b       	subi	r28, 0xB4	; 180
    198e:	d0 40       	sbci	r29, 0x00	; 0
    1990:	ec 96       	adiw	r28, 0x3c	; 60
    1992:	8c af       	std	Y+60, r24	; 0x3c
    1994:	9d af       	std	Y+61, r25	; 0x3d
    1996:	ae af       	std	Y+62, r26	; 0x3e
    1998:	bf af       	std	Y+63, r27	; 0x3f
    199a:	ec 97       	sbiw	r28, 0x3c	; 60

0000199c <.LM96>:
    199c:	8e 01       	movw	r16, r28
    199e:	0c 5b       	subi	r16, 0xBC	; 188
    19a0:	1f 4f       	sbci	r17, 0xFF	; 255
    19a2:	ec 96       	adiw	r28, 0x3c	; 60
    19a4:	6c ad       	ldd	r22, Y+60	; 0x3c
    19a6:	7d ad       	ldd	r23, Y+61	; 0x3d
    19a8:	8e ad       	ldd	r24, Y+62	; 0x3e
    19aa:	9f ad       	ldd	r25, Y+63	; 0x3f
    19ac:	ec 97       	sbiw	r28, 0x3c	; 60
    19ae:	0e 94 11 19 	call	0x3222	; 0x3222 <__fixunssfsi>
    19b2:	c8 54       	subi	r28, 0x48	; 72
    19b4:	df 4f       	sbci	r29, 0xFF	; 255
    19b6:	68 83       	st	Y, r22
    19b8:	79 83       	std	Y+1, r23	; 0x01
    19ba:	8a 83       	std	Y+2, r24	; 0x02
    19bc:	9b 83       	std	Y+3, r25	; 0x03
    19be:	c8 5b       	subi	r28, 0xB8	; 184
    19c0:	d0 40       	sbci	r29, 0x00	; 0
    19c2:	c8 54       	subi	r28, 0x48	; 72
    19c4:	df 4f       	sbci	r29, 0xFF	; 255
    19c6:	e8 81       	ld	r30, Y
    19c8:	f9 81       	ldd	r31, Y+1	; 0x01
    19ca:	c8 5b       	subi	r28, 0xB8	; 184
    19cc:	d0 40       	sbci	r29, 0x00	; 0
    19ce:	d8 01       	movw	r26, r16
    19d0:	11 96       	adiw	r26, 0x01	; 1
    19d2:	fc 93       	st	X, r31
    19d4:	ee 93       	st	-X, r30

000019d6 <.LM97>:
    19d6:	26 c0       	rjmp	.+76     	; 0x1a24 <.L53>

000019d8 <.L54>:
    19d8:	ce 01       	movw	r24, r28
    19da:	8a 5b       	subi	r24, 0xBA	; 186
    19dc:	9f 4f       	sbci	r25, 0xFF	; 255
    19de:	29 e1       	ldi	r18, 0x19	; 25
    19e0:	30 e0       	ldi	r19, 0x00	; 0
    19e2:	dc 01       	movw	r26, r24
    19e4:	2d 93       	st	X+, r18
    19e6:	3c 93       	st	X, r19

000019e8 <.LM98>:
    19e8:	ce 01       	movw	r24, r28
    19ea:	8a 5b       	subi	r24, 0xBA	; 186
    19ec:	9f 4f       	sbci	r25, 0xFF	; 255
    19ee:	fc 01       	movw	r30, r24
    19f0:	80 81       	ld	r24, Z
    19f2:	91 81       	ldd	r25, Z+1	; 0x01

000019f4 <.L1^B9>:
    19f4:	01 97       	sbiw	r24, 0x01	; 1
    19f6:	f1 f7       	brne	.-4      	; 0x19f4 <.L1^B9>
    19f8:	9e 01       	movw	r18, r28
    19fa:	2a 5b       	subi	r18, 0xBA	; 186
    19fc:	3f 4f       	sbci	r19, 0xFF	; 255
    19fe:	d9 01       	movw	r26, r18
    1a00:	8d 93       	st	X+, r24
    1a02:	9c 93       	st	X, r25

00001a04 <.LM99>:
	...

00001a06 <.LM100>:
    1a06:	ce 01       	movw	r24, r28
    1a08:	8c 5b       	subi	r24, 0xBC	; 188
    1a0a:	9f 4f       	sbci	r25, 0xFF	; 255
    1a0c:	9e 01       	movw	r18, r28
    1a0e:	2c 5b       	subi	r18, 0xBC	; 188
    1a10:	3f 4f       	sbci	r19, 0xFF	; 255
    1a12:	f9 01       	movw	r30, r18
    1a14:	20 81       	ld	r18, Z
    1a16:	31 81       	ldd	r19, Z+1	; 0x01
    1a18:	21 50       	subi	r18, 0x01	; 1
    1a1a:	31 09       	sbc	r19, r1
    1a1c:	dc 01       	movw	r26, r24
    1a1e:	11 96       	adiw	r26, 0x01	; 1
    1a20:	3c 93       	st	X, r19
    1a22:	2e 93       	st	-X, r18

00001a24 <.L53>:
    1a24:	ce 01       	movw	r24, r28
    1a26:	8c 5b       	subi	r24, 0xBC	; 188
    1a28:	9f 4f       	sbci	r25, 0xFF	; 255
    1a2a:	fc 01       	movw	r30, r24
    1a2c:	80 81       	ld	r24, Z
    1a2e:	91 81       	ldd	r25, Z+1	; 0x01
    1a30:	00 97       	sbiw	r24, 0x00	; 0
    1a32:	91 f6       	brne	.-92     	; 0x19d8 <.L54>

00001a34 <.LM102>:
    1a34:	92 c0       	rjmp	.+292    	; 0x1b5a <.L45>

00001a36 <.L108>:
    1a36:	8e 01       	movw	r16, r28
    1a38:	0c 5b       	subi	r16, 0xBC	; 188
    1a3a:	1f 4f       	sbci	r17, 0xFF	; 255
    1a3c:	ce 01       	movw	r24, r28
    1a3e:	80 5c       	subi	r24, 0xC0	; 192
    1a40:	9f 4f       	sbci	r25, 0xFF	; 255
    1a42:	dc 01       	movw	r26, r24
    1a44:	6d 91       	ld	r22, X+
    1a46:	7d 91       	ld	r23, X+
    1a48:	8d 91       	ld	r24, X+
    1a4a:	9c 91       	ld	r25, X
    1a4c:	0e 94 11 19 	call	0x3222	; 0x3222 <__fixunssfsi>
    1a50:	c4 54       	subi	r28, 0x44	; 68
    1a52:	df 4f       	sbci	r29, 0xFF	; 255
    1a54:	68 83       	st	Y, r22
    1a56:	79 83       	std	Y+1, r23	; 0x01
    1a58:	8a 83       	std	Y+2, r24	; 0x02
    1a5a:	9b 83       	std	Y+3, r25	; 0x03
    1a5c:	cc 5b       	subi	r28, 0xBC	; 188
    1a5e:	d0 40       	sbci	r29, 0x00	; 0
    1a60:	c4 54       	subi	r28, 0x44	; 68
    1a62:	df 4f       	sbci	r29, 0xFF	; 255
    1a64:	88 81       	ld	r24, Y
    1a66:	99 81       	ldd	r25, Y+1	; 0x01
    1a68:	cc 5b       	subi	r28, 0xBC	; 188
    1a6a:	d0 40       	sbci	r29, 0x00	; 0
    1a6c:	f8 01       	movw	r30, r16
    1a6e:	91 83       	std	Z+1, r25	; 0x01
    1a70:	80 83       	st	Z, r24

00001a72 <.L50>:
    1a72:	ce 01       	movw	r24, r28
    1a74:	88 5b       	subi	r24, 0xB8	; 184
    1a76:	9f 4f       	sbci	r25, 0xFF	; 255
    1a78:	9e 01       	movw	r18, r28
    1a7a:	2c 5b       	subi	r18, 0xBC	; 188
    1a7c:	3f 4f       	sbci	r19, 0xFF	; 255
    1a7e:	d9 01       	movw	r26, r18
    1a80:	2d 91       	ld	r18, X+
    1a82:	3c 91       	ld	r19, X
    1a84:	fc 01       	movw	r30, r24
    1a86:	31 83       	std	Z+1, r19	; 0x01
    1a88:	20 83       	st	Z, r18

00001a8a <.LM104>:
    1a8a:	ce 01       	movw	r24, r28
    1a8c:	88 5b       	subi	r24, 0xB8	; 184
    1a8e:	9f 4f       	sbci	r25, 0xFF	; 255
    1a90:	dc 01       	movw	r26, r24
    1a92:	8d 91       	ld	r24, X+
    1a94:	9c 91       	ld	r25, X
    1a96:	11 97       	sbiw	r26, 0x01	; 1

00001a98 <.L1^B10>:
    1a98:	01 97       	sbiw	r24, 0x01	; 1
    1a9a:	f1 f7       	brne	.-4      	; 0x1a98 <.L1^B10>
    1a9c:	9e 01       	movw	r18, r28
    1a9e:	28 5b       	subi	r18, 0xB8	; 184
    1aa0:	3f 4f       	sbci	r19, 0xFF	; 255
    1aa2:	f9 01       	movw	r30, r18
    1aa4:	91 83       	std	Z+1, r25	; 0x01
    1aa6:	80 83       	st	Z, r24

00001aa8 <.LM105>:
    1aa8:	58 c0       	rjmp	.+176    	; 0x1b5a <.L45>

00001aaa <.L106>:
    1aaa:	20 e0       	ldi	r18, 0x00	; 0
    1aac:	30 e0       	ldi	r19, 0x00	; 0
    1aae:	4f e7       	ldi	r20, 0x7F	; 127
    1ab0:	53 e4       	ldi	r21, 0x43	; 67
    1ab2:	6b a9       	ldd	r22, Y+51	; 0x33
    1ab4:	7c a9       	ldd	r23, Y+52	; 0x34
    1ab6:	8d a9       	ldd	r24, Y+53	; 0x35
    1ab8:	9e a9       	ldd	r25, Y+54	; 0x36
    1aba:	0e 94 b5 19 	call	0x336a	; 0x336a <__gesf2>
    1abe:	88 23       	and	r24, r24
    1ac0:	c1 f1       	breq	.+112    	; 0x1b32 <.L109>
    1ac2:	bc f1       	brlt	.+110    	; 0x1b32 <.L109>

00001ac4 <.LM107>:
    1ac4:	8e 01       	movw	r16, r28
    1ac6:	06 5b       	subi	r16, 0xB6	; 182
    1ac8:	1f 4f       	sbci	r17, 0xFF	; 255
    1aca:	6f a9       	ldd	r22, Y+55	; 0x37
    1acc:	78 ad       	ldd	r23, Y+56	; 0x38
    1ace:	89 ad       	ldd	r24, Y+57	; 0x39
    1ad0:	9a ad       	ldd	r25, Y+58	; 0x3a
    1ad2:	0e 94 11 19 	call	0x3222	; 0x3222 <__fixunssfsi>
    1ad6:	c0 54       	subi	r28, 0x40	; 64
    1ad8:	df 4f       	sbci	r29, 0xFF	; 255
    1ada:	68 83       	st	Y, r22
    1adc:	79 83       	std	Y+1, r23	; 0x01
    1ade:	8a 83       	std	Y+2, r24	; 0x02
    1ae0:	9b 83       	std	Y+3, r25	; 0x03
    1ae2:	c0 5c       	subi	r28, 0xC0	; 192
    1ae4:	d0 40       	sbci	r29, 0x00	; 0
    1ae6:	c0 54       	subi	r28, 0x40	; 64
    1ae8:	df 4f       	sbci	r29, 0xFF	; 255
    1aea:	e8 81       	ld	r30, Y
    1aec:	f9 81       	ldd	r31, Y+1	; 0x01
    1aee:	c0 5c       	subi	r28, 0xC0	; 192
    1af0:	d0 40       	sbci	r29, 0x00	; 0
    1af2:	d8 01       	movw	r26, r16
    1af4:	ed 93       	st	X+, r30
    1af6:	fc 93       	st	X, r31
    1af8:	ce 01       	movw	r24, r28
    1afa:	84 5b       	subi	r24, 0xB4	; 180
    1afc:	9f 4f       	sbci	r25, 0xFF	; 255
    1afe:	9e 01       	movw	r18, r28
    1b00:	26 5b       	subi	r18, 0xB6	; 182
    1b02:	3f 4f       	sbci	r19, 0xFF	; 255
    1b04:	d9 01       	movw	r26, r18
    1b06:	2d 91       	ld	r18, X+
    1b08:	3c 91       	ld	r19, X
    1b0a:	fc 01       	movw	r30, r24
    1b0c:	31 83       	std	Z+1, r19	; 0x01
    1b0e:	20 83       	st	Z, r18

00001b10 <.LM108>:
    1b10:	ce 01       	movw	r24, r28
    1b12:	84 5b       	subi	r24, 0xB4	; 180
    1b14:	9f 4f       	sbci	r25, 0xFF	; 255
    1b16:	dc 01       	movw	r26, r24
    1b18:	8d 91       	ld	r24, X+
    1b1a:	9c 91       	ld	r25, X
    1b1c:	11 97       	sbiw	r26, 0x01	; 1

00001b1e <.L1^B11>:
    1b1e:	01 97       	sbiw	r24, 0x01	; 1
    1b20:	f1 f7       	brne	.-4      	; 0x1b1e <.L1^B11>
    1b22:	9e 01       	movw	r18, r28
    1b24:	24 5b       	subi	r18, 0xB4	; 180
    1b26:	3f 4f       	sbci	r19, 0xFF	; 255
    1b28:	f9 01       	movw	r30, r18
    1b2a:	91 83       	std	Z+1, r25	; 0x01
    1b2c:	80 83       	st	Z, r24

00001b2e <.LM109>:
	...

00001b30 <.LM110>:
    1b30:	28 c0       	rjmp	.+80     	; 0x1b82 <.L58>

00001b32 <.L109>:
    1b32:	6b a9       	ldd	r22, Y+51	; 0x33
    1b34:	7c a9       	ldd	r23, Y+52	; 0x34
    1b36:	8d a9       	ldd	r24, Y+53	; 0x35
    1b38:	9e a9       	ldd	r25, Y+54	; 0x36
    1b3a:	0e 94 11 19 	call	0x3222	; 0x3222 <__fixunssfsi>
    1b3e:	cc 53       	subi	r28, 0x3C	; 60
    1b40:	df 4f       	sbci	r29, 0xFF	; 255
    1b42:	68 83       	st	Y, r22
    1b44:	79 83       	std	Y+1, r23	; 0x01
    1b46:	8a 83       	std	Y+2, r24	; 0x02
    1b48:	9b 83       	std	Y+3, r25	; 0x03
    1b4a:	c4 5c       	subi	r28, 0xC4	; 196
    1b4c:	d0 40       	sbci	r29, 0x00	; 0
    1b4e:	cc 53       	subi	r28, 0x3C	; 60
    1b50:	df 4f       	sbci	r29, 0xFF	; 255
    1b52:	f8 81       	ld	r31, Y
    1b54:	c4 5c       	subi	r28, 0xC4	; 196
    1b56:	d0 40       	sbci	r29, 0x00	; 0
    1b58:	fb af       	std	Y+59, r31	; 0x3b

00001b5a <.L45>:
    1b5a:	ce 01       	movw	r24, r28
    1b5c:	82 5b       	subi	r24, 0xB2	; 178
    1b5e:	9f 4f       	sbci	r25, 0xFF	; 255
    1b60:	2b ad       	ldd	r18, Y+59	; 0x3b
    1b62:	dc 01       	movw	r26, r24
    1b64:	2c 93       	st	X, r18

00001b66 <.LM112>:
    1b66:	ce 01       	movw	r24, r28
    1b68:	82 5b       	subi	r24, 0xB2	; 178
    1b6a:	9f 4f       	sbci	r25, 0xFF	; 255
    1b6c:	fc 01       	movw	r30, r24
    1b6e:	80 81       	ld	r24, Z
    1b70:	28 2f       	mov	r18, r24

00001b72 <.L1^B12>:
    1b72:	2a 95       	dec	r18
    1b74:	f1 f7       	brne	.-4      	; 0x1b72 <.L1^B12>
    1b76:	ce 01       	movw	r24, r28
    1b78:	82 5b       	subi	r24, 0xB2	; 178
    1b7a:	9f 4f       	sbci	r25, 0xFF	; 255
    1b7c:	dc 01       	movw	r26, r24
    1b7e:	2c 93       	st	X, r18

00001b80 <.LM113>:
	...

00001b82 <.L58>:
    1b82:	ce 01       	movw	r24, r28
    1b84:	81 59       	subi	r24, 0x91	; 145
    1b86:	9f 4f       	sbci	r25, 0xFF	; 255
    1b88:	fc 01       	movw	r30, r24
    1b8a:	80 81       	ld	r24, Z
    1b8c:	81 70       	andi	r24, 0x01	; 1
    1b8e:	48 2f       	mov	r20, r24
    1b90:	64 e0       	ldi	r22, 0x04	; 4
    1b92:	82 e0       	ldi	r24, 0x02	; 2
    1b94:	0e 94 4e 05 	call	0xa9c	; 0xa9c <GPIO_SetPinValue>

00001b98 <.LM115>:
    1b98:	ce 01       	movw	r24, r28
    1b9a:	81 59       	subi	r24, 0x91	; 145
    1b9c:	9f 4f       	sbci	r25, 0xFF	; 255
    1b9e:	dc 01       	movw	r26, r24
    1ba0:	8c 91       	ld	r24, X
    1ba2:	86 95       	lsr	r24

00001ba4 <.LM116>:
    1ba4:	81 70       	andi	r24, 0x01	; 1
    1ba6:	48 2f       	mov	r20, r24
    1ba8:	65 e0       	ldi	r22, 0x05	; 5
    1baa:	82 e0       	ldi	r24, 0x02	; 2
    1bac:	0e 94 4e 05 	call	0xa9c	; 0xa9c <GPIO_SetPinValue>

00001bb0 <.LM117>:
    1bb0:	ce 01       	movw	r24, r28
    1bb2:	81 59       	subi	r24, 0x91	; 145
    1bb4:	9f 4f       	sbci	r25, 0xFF	; 255
    1bb6:	fc 01       	movw	r30, r24
    1bb8:	80 81       	ld	r24, Z
    1bba:	86 95       	lsr	r24
    1bbc:	86 95       	lsr	r24

00001bbe <.LM118>:
    1bbe:	81 70       	andi	r24, 0x01	; 1
    1bc0:	48 2f       	mov	r20, r24
    1bc2:	66 e0       	ldi	r22, 0x06	; 6
    1bc4:	82 e0       	ldi	r24, 0x02	; 2
    1bc6:	0e 94 4e 05 	call	0xa9c	; 0xa9c <GPIO_SetPinValue>

00001bca <.LM119>:
    1bca:	ce 01       	movw	r24, r28
    1bcc:	81 59       	subi	r24, 0x91	; 145
    1bce:	9f 4f       	sbci	r25, 0xFF	; 255
    1bd0:	dc 01       	movw	r26, r24
    1bd2:	8c 91       	ld	r24, X
    1bd4:	86 95       	lsr	r24
    1bd6:	86 95       	lsr	r24
    1bd8:	86 95       	lsr	r24

00001bda <.LM120>:
    1bda:	81 70       	andi	r24, 0x01	; 1
    1bdc:	48 2f       	mov	r20, r24
    1bde:	67 e0       	ldi	r22, 0x07	; 7
    1be0:	82 e0       	ldi	r24, 0x02	; 2
    1be2:	0e 94 4e 05 	call	0xa9c	; 0xa9c <GPIO_SetPinValue>

00001be6 <.LM121>:
    1be6:	41 e0       	ldi	r20, 0x01	; 1
    1be8:	62 e0       	ldi	r22, 0x02	; 2
    1bea:	82 e0       	ldi	r24, 0x02	; 2
    1bec:	0e 94 4e 05 	call	0xa9c	; 0xa9c <GPIO_SetPinValue>
    1bf0:	80 e0       	ldi	r24, 0x00	; 0
    1bf2:	90 e0       	ldi	r25, 0x00	; 0
    1bf4:	a0 e8       	ldi	r26, 0x80	; 128
    1bf6:	bf e3       	ldi	r27, 0x3F	; 63
    1bf8:	8f 87       	std	Y+15, r24	; 0x0f
    1bfa:	98 8b       	std	Y+16, r25	; 0x10
    1bfc:	a9 8b       	std	Y+17, r26	; 0x11
    1bfe:	ba 8b       	std	Y+18, r27	; 0x12

00001c00 <.LM122>:
    1c00:	2b ea       	ldi	r18, 0xAB	; 171
    1c02:	3a ea       	ldi	r19, 0xAA	; 170
    1c04:	4a ea       	ldi	r20, 0xAA	; 170
    1c06:	5e e3       	ldi	r21, 0x3E	; 62
    1c08:	6f 85       	ldd	r22, Y+15	; 0x0f
    1c0a:	78 89       	ldd	r23, Y+16	; 0x10
    1c0c:	89 89       	ldd	r24, Y+17	; 0x11
    1c0e:	9a 89       	ldd	r25, Y+18	; 0x12
    1c10:	0e 94 ba 19 	call	0x3374	; 0x3374 <__mulsf3>
    1c14:	c8 53       	subi	r28, 0x38	; 56
    1c16:	df 4f       	sbci	r29, 0xFF	; 255
    1c18:	68 83       	st	Y, r22
    1c1a:	79 83       	std	Y+1, r23	; 0x01
    1c1c:	8a 83       	std	Y+2, r24	; 0x02
    1c1e:	9b 83       	std	Y+3, r25	; 0x03
    1c20:	c8 5c       	subi	r28, 0xC8	; 200
    1c22:	d0 40       	sbci	r29, 0x00	; 0
    1c24:	c8 53       	subi	r28, 0x38	; 56
    1c26:	df 4f       	sbci	r29, 0xFF	; 255
    1c28:	88 81       	ld	r24, Y
    1c2a:	99 81       	ldd	r25, Y+1	; 0x01
    1c2c:	aa 81       	ldd	r26, Y+2	; 0x02
    1c2e:	bb 81       	ldd	r27, Y+3	; 0x03
    1c30:	c8 5c       	subi	r28, 0xC8	; 200
    1c32:	d0 40       	sbci	r29, 0x00	; 0
    1c34:	8b 8b       	std	Y+19, r24	; 0x13
    1c36:	9c 8b       	std	Y+20, r25	; 0x14
    1c38:	ad 8b       	std	Y+21, r26	; 0x15
    1c3a:	be 8b       	std	Y+22, r27	; 0x16

00001c3c <.LM123>:
    1c3c:	20 e0       	ldi	r18, 0x00	; 0
    1c3e:	30 e0       	ldi	r19, 0x00	; 0
    1c40:	40 e8       	ldi	r20, 0x80	; 128
    1c42:	5e e3       	ldi	r21, 0x3E	; 62
    1c44:	6f 85       	ldd	r22, Y+15	; 0x0f
    1c46:	78 89       	ldd	r23, Y+16	; 0x10
    1c48:	89 89       	ldd	r24, Y+17	; 0x11
    1c4a:	9a 89       	ldd	r25, Y+18	; 0x12
    1c4c:	0e 94 ba 19 	call	0x3374	; 0x3374 <__mulsf3>
    1c50:	c4 53       	subi	r28, 0x34	; 52
    1c52:	df 4f       	sbci	r29, 0xFF	; 255
    1c54:	68 83       	st	Y, r22
    1c56:	79 83       	std	Y+1, r23	; 0x01
    1c58:	8a 83       	std	Y+2, r24	; 0x02
    1c5a:	9b 83       	std	Y+3, r25	; 0x03
    1c5c:	cc 5c       	subi	r28, 0xCC	; 204
    1c5e:	d0 40       	sbci	r29, 0x00	; 0
    1c60:	c4 53       	subi	r28, 0x34	; 52
    1c62:	df 4f       	sbci	r29, 0xFF	; 255
    1c64:	88 81       	ld	r24, Y
    1c66:	99 81       	ldd	r25, Y+1	; 0x01
    1c68:	aa 81       	ldd	r26, Y+2	; 0x02
    1c6a:	bb 81       	ldd	r27, Y+3	; 0x03
    1c6c:	cc 5c       	subi	r28, 0xCC	; 204
    1c6e:	d0 40       	sbci	r29, 0x00	; 0
    1c70:	8f 8b       	std	Y+23, r24	; 0x17
    1c72:	98 8f       	std	Y+24, r25	; 0x18
    1c74:	a9 8f       	std	Y+25, r26	; 0x19
    1c76:	ba 8f       	std	Y+26, r27	; 0x1a

00001c78 <.LM124>:
    1c78:	20 e0       	ldi	r18, 0x00	; 0
    1c7a:	30 e0       	ldi	r19, 0x00	; 0
    1c7c:	40 e8       	ldi	r20, 0x80	; 128
    1c7e:	5f e3       	ldi	r21, 0x3F	; 63
    1c80:	6b 89       	ldd	r22, Y+19	; 0x13
    1c82:	7c 89       	ldd	r23, Y+20	; 0x14
    1c84:	8d 89       	ldd	r24, Y+21	; 0x15
    1c86:	9e 89       	ldd	r25, Y+22	; 0x16
    1c88:	0e 94 9a 18 	call	0x3134	; 0x3134 <__cmpsf2>
    1c8c:	88 23       	and	r24, r24
    1c8e:	1c f4       	brge	.+6      	; 0x1c96 <.L110>

00001c90 <.LM125>:
    1c90:	81 e0       	ldi	r24, 0x01	; 1
    1c92:	8b 8f       	std	Y+27, r24	; 0x1b
    1c94:	1b c1       	rjmp	.+566    	; 0x1ecc <.L61>

00001c96 <.L110>:
    1c96:	20 e0       	ldi	r18, 0x00	; 0
    1c98:	3f ef       	ldi	r19, 0xFF	; 255
    1c9a:	4f e7       	ldi	r20, 0x7F	; 127
    1c9c:	57 e4       	ldi	r21, 0x47	; 71
    1c9e:	6f 89       	ldd	r22, Y+23	; 0x17
    1ca0:	78 8d       	ldd	r23, Y+24	; 0x18
    1ca2:	89 8d       	ldd	r24, Y+25	; 0x19
    1ca4:	9a 8d       	ldd	r25, Y+26	; 0x1a
    1ca6:	0e 94 b5 19 	call	0x336a	; 0x336a <__gesf2>
    1caa:	88 23       	and	r24, r24
    1cac:	09 f0       	breq	.+2      	; 0x1cb0 <L0^A>

00001cae <L0^A>:
    1cae:	0c f4       	brge	.+2      	; 0x1cb2 <.LM127>

00001cb0 <L0^A>:
    1cb0:	ca c0       	rjmp	.+404    	; 0x1e46 <.L111>

00001cb2 <.LM127>:
    1cb2:	20 e0       	ldi	r18, 0x00	; 0
    1cb4:	30 e0       	ldi	r19, 0x00	; 0
    1cb6:	4a e7       	ldi	r20, 0x7A	; 122
    1cb8:	54 e4       	ldi	r21, 0x44	; 68
    1cba:	6f 85       	ldd	r22, Y+15	; 0x0f
    1cbc:	78 89       	ldd	r23, Y+16	; 0x10
    1cbe:	89 89       	ldd	r24, Y+17	; 0x11
    1cc0:	9a 89       	ldd	r25, Y+18	; 0x12
    1cc2:	0e 94 9f 18 	call	0x313e	; 0x313e <__divsf3>
    1cc6:	c0 53       	subi	r28, 0x30	; 48
    1cc8:	df 4f       	sbci	r29, 0xFF	; 255
    1cca:	68 83       	st	Y, r22
    1ccc:	79 83       	std	Y+1, r23	; 0x01
    1cce:	8a 83       	std	Y+2, r24	; 0x02
    1cd0:	9b 83       	std	Y+3, r25	; 0x03
    1cd2:	c0 5d       	subi	r28, 0xD0	; 208
    1cd4:	d0 40       	sbci	r29, 0x00	; 0
    1cd6:	c0 53       	subi	r28, 0x30	; 48
    1cd8:	df 4f       	sbci	r29, 0xFF	; 255
    1cda:	88 81       	ld	r24, Y
    1cdc:	99 81       	ldd	r25, Y+1	; 0x01
    1cde:	aa 81       	ldd	r26, Y+2	; 0x02
    1ce0:	bb 81       	ldd	r27, Y+3	; 0x03
    1ce2:	c0 5d       	subi	r28, 0xD0	; 208
    1ce4:	d0 40       	sbci	r29, 0x00	; 0
    1ce6:	8c 8f       	std	Y+28, r24	; 0x1c
    1ce8:	9d 8f       	std	Y+29, r25	; 0x1d
    1cea:	ae 8f       	std	Y+30, r26	; 0x1e
    1cec:	bf 8f       	std	Y+31, r27	; 0x1f

00001cee <.LM128>:
    1cee:	20 e0       	ldi	r18, 0x00	; 0
    1cf0:	30 e0       	ldi	r19, 0x00	; 0
    1cf2:	4a e7       	ldi	r20, 0x7A	; 122
    1cf4:	53 e4       	ldi	r21, 0x43	; 67
    1cf6:	6c 8d       	ldd	r22, Y+28	; 0x1c
    1cf8:	7d 8d       	ldd	r23, Y+29	; 0x1d
    1cfa:	8e 8d       	ldd	r24, Y+30	; 0x1e
    1cfc:	9f 8d       	ldd	r25, Y+31	; 0x1f
    1cfe:	0e 94 ba 19 	call	0x3374	; 0x3374 <__mulsf3>
    1d02:	cc 52       	subi	r28, 0x2C	; 44
    1d04:	df 4f       	sbci	r29, 0xFF	; 255
    1d06:	68 83       	st	Y, r22
    1d08:	79 83       	std	Y+1, r23	; 0x01
    1d0a:	8a 83       	std	Y+2, r24	; 0x02
    1d0c:	9b 83       	std	Y+3, r25	; 0x03
    1d0e:	c4 5d       	subi	r28, 0xD4	; 212
    1d10:	d0 40       	sbci	r29, 0x00	; 0
    1d12:	cc 52       	subi	r28, 0x2C	; 44
    1d14:	df 4f       	sbci	r29, 0xFF	; 255
    1d16:	88 81       	ld	r24, Y
    1d18:	99 81       	ldd	r25, Y+1	; 0x01
    1d1a:	aa 81       	ldd	r26, Y+2	; 0x02
    1d1c:	bb 81       	ldd	r27, Y+3	; 0x03
    1d1e:	c4 5d       	subi	r28, 0xD4	; 212
    1d20:	d0 40       	sbci	r29, 0x00	; 0
    1d22:	88 a3       	std	Y+32, r24	; 0x20
    1d24:	99 a3       	std	Y+33, r25	; 0x21
    1d26:	aa a3       	std	Y+34, r26	; 0x22
    1d28:	bb a3       	std	Y+35, r27	; 0x23

00001d2a <.LM129>:
    1d2a:	20 e0       	ldi	r18, 0x00	; 0
    1d2c:	30 e0       	ldi	r19, 0x00	; 0
    1d2e:	40 e8       	ldi	r20, 0x80	; 128
    1d30:	5f e3       	ldi	r21, 0x3F	; 63
    1d32:	68 a1       	ldd	r22, Y+32	; 0x20
    1d34:	79 a1       	ldd	r23, Y+33	; 0x21
    1d36:	8a a1       	ldd	r24, Y+34	; 0x22
    1d38:	9b a1       	ldd	r25, Y+35	; 0x23
    1d3a:	0e 94 9a 18 	call	0x3134	; 0x3134 <__cmpsf2>
    1d3e:	88 23       	and	r24, r24
    1d40:	2c f4       	brge	.+10     	; 0x1d4c <.L112>

00001d42 <.LM130>:
    1d42:	81 e0       	ldi	r24, 0x01	; 1
    1d44:	90 e0       	ldi	r25, 0x00	; 0
    1d46:	9d a3       	std	Y+37, r25	; 0x25
    1d48:	8c a3       	std	Y+36, r24	; 0x24
    1d4a:	72 c0       	rjmp	.+228    	; 0x1e30 <.L66>

00001d4c <.L112>:
    1d4c:	20 e0       	ldi	r18, 0x00	; 0
    1d4e:	3f ef       	ldi	r19, 0xFF	; 255
    1d50:	4f e7       	ldi	r20, 0x7F	; 127
    1d52:	57 e4       	ldi	r21, 0x47	; 71
    1d54:	68 a1       	ldd	r22, Y+32	; 0x20
    1d56:	79 a1       	ldd	r23, Y+33	; 0x21
    1d58:	8a a1       	ldd	r24, Y+34	; 0x22
    1d5a:	9b a1       	ldd	r25, Y+35	; 0x23
    1d5c:	0e 94 b5 19 	call	0x336a	; 0x336a <__gesf2>
    1d60:	88 23       	and	r24, r24
    1d62:	09 f0       	breq	.+2      	; 0x1d66 <L0^A>

00001d64 <L0^A>:
    1d64:	0c f4       	brge	.+2      	; 0x1d68 <.LM132>

00001d66 <L0^A>:
    1d66:	4e c0       	rjmp	.+156    	; 0x1e04 <.L113>

00001d68 <.LM132>:
    1d68:	20 e0       	ldi	r18, 0x00	; 0
    1d6a:	30 e0       	ldi	r19, 0x00	; 0
    1d6c:	40 e2       	ldi	r20, 0x20	; 32
    1d6e:	51 e4       	ldi	r21, 0x41	; 65
    1d70:	6c 8d       	ldd	r22, Y+28	; 0x1c
    1d72:	7d 8d       	ldd	r23, Y+29	; 0x1d
    1d74:	8e 8d       	ldd	r24, Y+30	; 0x1e
    1d76:	9f 8d       	ldd	r25, Y+31	; 0x1f
    1d78:	0e 94 ba 19 	call	0x3374	; 0x3374 <__mulsf3>
    1d7c:	c8 52       	subi	r28, 0x28	; 40
    1d7e:	df 4f       	sbci	r29, 0xFF	; 255
    1d80:	68 83       	st	Y, r22
    1d82:	79 83       	std	Y+1, r23	; 0x01
    1d84:	8a 83       	std	Y+2, r24	; 0x02
    1d86:	9b 83       	std	Y+3, r25	; 0x03
    1d88:	c8 5d       	subi	r28, 0xD8	; 216
    1d8a:	d0 40       	sbci	r29, 0x00	; 0
    1d8c:	c8 52       	subi	r28, 0x28	; 40
    1d8e:	df 4f       	sbci	r29, 0xFF	; 255
    1d90:	88 81       	ld	r24, Y
    1d92:	99 81       	ldd	r25, Y+1	; 0x01
    1d94:	aa 81       	ldd	r26, Y+2	; 0x02
    1d96:	bb 81       	ldd	r27, Y+3	; 0x03
    1d98:	c8 5d       	subi	r28, 0xD8	; 216
    1d9a:	d0 40       	sbci	r29, 0x00	; 0
    1d9c:	e8 96       	adiw	r28, 0x38	; 56
    1d9e:	8c af       	std	Y+60, r24	; 0x3c
    1da0:	9d af       	std	Y+61, r25	; 0x3d
    1da2:	ae af       	std	Y+62, r26	; 0x3e
    1da4:	bf af       	std	Y+63, r27	; 0x3f
    1da6:	e8 97       	sbiw	r28, 0x38	; 56

00001da8 <.LM133>:
    1da8:	e8 96       	adiw	r28, 0x38	; 56
    1daa:	6c ad       	ldd	r22, Y+60	; 0x3c
    1dac:	7d ad       	ldd	r23, Y+61	; 0x3d
    1dae:	8e ad       	ldd	r24, Y+62	; 0x3e
    1db0:	9f ad       	ldd	r25, Y+63	; 0x3f
    1db2:	e8 97       	sbiw	r28, 0x38	; 56
    1db4:	0e 94 11 19 	call	0x3222	; 0x3222 <__fixunssfsi>
    1db8:	c4 52       	subi	r28, 0x24	; 36
    1dba:	df 4f       	sbci	r29, 0xFF	; 255
    1dbc:	68 83       	st	Y, r22
    1dbe:	79 83       	std	Y+1, r23	; 0x01
    1dc0:	8a 83       	std	Y+2, r24	; 0x02
    1dc2:	9b 83       	std	Y+3, r25	; 0x03
    1dc4:	cc 5d       	subi	r28, 0xDC	; 220
    1dc6:	d0 40       	sbci	r29, 0x00	; 0
    1dc8:	c4 52       	subi	r28, 0x24	; 36
    1dca:	df 4f       	sbci	r29, 0xFF	; 255
    1dcc:	a8 81       	ld	r26, Y
    1dce:	b9 81       	ldd	r27, Y+1	; 0x01
    1dd0:	cc 5d       	subi	r28, 0xDC	; 220
    1dd2:	d0 40       	sbci	r29, 0x00	; 0
    1dd4:	bd a3       	std	Y+37, r27	; 0x25
    1dd6:	ac a3       	std	Y+36, r26	; 0x24

00001dd8 <.LM134>:
    1dd8:	10 c0       	rjmp	.+32     	; 0x1dfa <.L69>

00001dda <.L70>:
    1dda:	89 e1       	ldi	r24, 0x19	; 25
    1ddc:	90 e0       	ldi	r25, 0x00	; 0
    1dde:	9f a3       	std	Y+39, r25	; 0x27
    1de0:	8e a3       	std	Y+38, r24	; 0x26

00001de2 <.LM135>:
    1de2:	8e a1       	ldd	r24, Y+38	; 0x26
    1de4:	9f a1       	ldd	r25, Y+39	; 0x27

00001de6 <.L1^B13>:
    1de6:	01 97       	sbiw	r24, 0x01	; 1
    1de8:	f1 f7       	brne	.-4      	; 0x1de6 <.L1^B13>
    1dea:	9f a3       	std	Y+39, r25	; 0x27
    1dec:	8e a3       	std	Y+38, r24	; 0x26

00001dee <.LM136>:
	...

00001df0 <.LM137>:
    1df0:	8c a1       	ldd	r24, Y+36	; 0x24
    1df2:	9d a1       	ldd	r25, Y+37	; 0x25
    1df4:	01 97       	sbiw	r24, 0x01	; 1
    1df6:	9d a3       	std	Y+37, r25	; 0x25
    1df8:	8c a3       	std	Y+36, r24	; 0x24

00001dfa <.L69>:
    1dfa:	8c a1       	ldd	r24, Y+36	; 0x24
    1dfc:	9d a1       	ldd	r25, Y+37	; 0x25
    1dfe:	00 97       	sbiw	r24, 0x00	; 0
    1e00:	61 f7       	brne	.-40     	; 0x1dda <.L70>

00001e02 <.LM139>:
    1e02:	64 c0       	rjmp	.+200    	; 0x1ecc <.L61>

00001e04 <.L113>:
    1e04:	68 a1       	ldd	r22, Y+32	; 0x20
    1e06:	79 a1       	ldd	r23, Y+33	; 0x21
    1e08:	8a a1       	ldd	r24, Y+34	; 0x22
    1e0a:	9b a1       	ldd	r25, Y+35	; 0x23
    1e0c:	0e 94 11 19 	call	0x3222	; 0x3222 <__fixunssfsi>
    1e10:	c0 52       	subi	r28, 0x20	; 32
    1e12:	df 4f       	sbci	r29, 0xFF	; 255
    1e14:	68 83       	st	Y, r22
    1e16:	79 83       	std	Y+1, r23	; 0x01
    1e18:	8a 83       	std	Y+2, r24	; 0x02
    1e1a:	9b 83       	std	Y+3, r25	; 0x03
    1e1c:	c0 5e       	subi	r28, 0xE0	; 224
    1e1e:	d0 40       	sbci	r29, 0x00	; 0
    1e20:	c0 52       	subi	r28, 0x20	; 32
    1e22:	df 4f       	sbci	r29, 0xFF	; 255
    1e24:	e8 81       	ld	r30, Y
    1e26:	f9 81       	ldd	r31, Y+1	; 0x01
    1e28:	c0 5e       	subi	r28, 0xE0	; 224
    1e2a:	d0 40       	sbci	r29, 0x00	; 0
    1e2c:	fd a3       	std	Y+37, r31	; 0x25
    1e2e:	ec a3       	std	Y+36, r30	; 0x24

00001e30 <.L66>:
    1e30:	8c a1       	ldd	r24, Y+36	; 0x24
    1e32:	9d a1       	ldd	r25, Y+37	; 0x25
    1e34:	99 a7       	std	Y+41, r25	; 0x29
    1e36:	88 a7       	std	Y+40, r24	; 0x28

00001e38 <.LM141>:
    1e38:	88 a5       	ldd	r24, Y+40	; 0x28
    1e3a:	99 a5       	ldd	r25, Y+41	; 0x29

00001e3c <.L1^B14>:
    1e3c:	01 97       	sbiw	r24, 0x01	; 1
    1e3e:	f1 f7       	brne	.-4      	; 0x1e3c <.L1^B14>
    1e40:	99 a7       	std	Y+41, r25	; 0x29
    1e42:	88 a7       	std	Y+40, r24	; 0x28

00001e44 <.LM142>:
    1e44:	43 c0       	rjmp	.+134    	; 0x1ecc <.L61>

00001e46 <.L111>:
    1e46:	20 e0       	ldi	r18, 0x00	; 0
    1e48:	30 e0       	ldi	r19, 0x00	; 0
    1e4a:	4f e7       	ldi	r20, 0x7F	; 127
    1e4c:	53 e4       	ldi	r21, 0x43	; 67
    1e4e:	6b 89       	ldd	r22, Y+19	; 0x13
    1e50:	7c 89       	ldd	r23, Y+20	; 0x14
    1e52:	8d 89       	ldd	r24, Y+21	; 0x15
    1e54:	9e 89       	ldd	r25, Y+22	; 0x16
    1e56:	0e 94 b5 19 	call	0x336a	; 0x336a <__gesf2>
    1e5a:	88 23       	and	r24, r24
    1e5c:	19 f1       	breq	.+70     	; 0x1ea4 <.L114>
    1e5e:	14 f1       	brlt	.+68     	; 0x1ea4 <.L114>

00001e60 <.LM144>:
    1e60:	6f 89       	ldd	r22, Y+23	; 0x17
    1e62:	78 8d       	ldd	r23, Y+24	; 0x18
    1e64:	89 8d       	ldd	r24, Y+25	; 0x19
    1e66:	9a 8d       	ldd	r25, Y+26	; 0x1a
    1e68:	0e 94 11 19 	call	0x3222	; 0x3222 <__fixunssfsi>
    1e6c:	cc 51       	subi	r28, 0x1C	; 28
    1e6e:	df 4f       	sbci	r29, 0xFF	; 255
    1e70:	68 83       	st	Y, r22
    1e72:	79 83       	std	Y+1, r23	; 0x01
    1e74:	8a 83       	std	Y+2, r24	; 0x02
    1e76:	9b 83       	std	Y+3, r25	; 0x03
    1e78:	c4 5e       	subi	r28, 0xE4	; 228
    1e7a:	d0 40       	sbci	r29, 0x00	; 0
    1e7c:	cc 51       	subi	r28, 0x1C	; 28
    1e7e:	df 4f       	sbci	r29, 0xFF	; 255
    1e80:	88 81       	ld	r24, Y
    1e82:	99 81       	ldd	r25, Y+1	; 0x01
    1e84:	c4 5e       	subi	r28, 0xE4	; 228
    1e86:	d0 40       	sbci	r29, 0x00	; 0
    1e88:	9b a7       	std	Y+43, r25	; 0x2b
    1e8a:	8a a7       	std	Y+42, r24	; 0x2a
    1e8c:	8a a5       	ldd	r24, Y+42	; 0x2a
    1e8e:	9b a5       	ldd	r25, Y+43	; 0x2b
    1e90:	9d a7       	std	Y+45, r25	; 0x2d
    1e92:	8c a7       	std	Y+44, r24	; 0x2c

00001e94 <.LM145>:
    1e94:	8c a5       	ldd	r24, Y+44	; 0x2c
    1e96:	9d a5       	ldd	r25, Y+45	; 0x2d

00001e98 <.L1^B15>:
    1e98:	01 97       	sbiw	r24, 0x01	; 1
    1e9a:	f1 f7       	brne	.-4      	; 0x1e98 <.L1^B15>
    1e9c:	9d a7       	std	Y+45, r25	; 0x2d
    1e9e:	8c a7       	std	Y+44, r24	; 0x2c

00001ea0 <.LM146>:
	...

00001ea2 <.LM147>:
    1ea2:	1b c0       	rjmp	.+54     	; 0x1eda <.L74>

00001ea4 <.L114>:
    1ea4:	6b 89       	ldd	r22, Y+19	; 0x13
    1ea6:	7c 89       	ldd	r23, Y+20	; 0x14
    1ea8:	8d 89       	ldd	r24, Y+21	; 0x15
    1eaa:	9e 89       	ldd	r25, Y+22	; 0x16
    1eac:	0e 94 11 19 	call	0x3222	; 0x3222 <__fixunssfsi>
    1eb0:	c8 51       	subi	r28, 0x18	; 24
    1eb2:	df 4f       	sbci	r29, 0xFF	; 255
    1eb4:	68 83       	st	Y, r22
    1eb6:	79 83       	std	Y+1, r23	; 0x01
    1eb8:	8a 83       	std	Y+2, r24	; 0x02
    1eba:	9b 83       	std	Y+3, r25	; 0x03
    1ebc:	c8 5e       	subi	r28, 0xE8	; 232
    1ebe:	d0 40       	sbci	r29, 0x00	; 0
    1ec0:	c8 51       	subi	r28, 0x18	; 24
    1ec2:	df 4f       	sbci	r29, 0xFF	; 255
    1ec4:	98 81       	ld	r25, Y
    1ec6:	c8 5e       	subi	r28, 0xE8	; 232
    1ec8:	d0 40       	sbci	r29, 0x00	; 0
    1eca:	9b 8f       	std	Y+27, r25	; 0x1b

00001ecc <.L61>:
    1ecc:	8b 8d       	ldd	r24, Y+27	; 0x1b
    1ece:	8e a7       	std	Y+46, r24	; 0x2e

00001ed0 <.LM149>:
    1ed0:	8e a5       	ldd	r24, Y+46	; 0x2e

00001ed2 <.L1^B16>:
    1ed2:	8a 95       	dec	r24
    1ed4:	f1 f7       	brne	.-4      	; 0x1ed2 <.L1^B16>
    1ed6:	8e a7       	std	Y+46, r24	; 0x2e

00001ed8 <.LM150>:
	...

00001eda <.L74>:
    1eda:	40 e0       	ldi	r20, 0x00	; 0
    1edc:	62 e0       	ldi	r22, 0x02	; 2
    1ede:	82 e0       	ldi	r24, 0x02	; 2
    1ee0:	0e 94 4e 05 	call	0xa9c	; 0xa9c <GPIO_SetPinValue>
    1ee4:	80 e0       	ldi	r24, 0x00	; 0
    1ee6:	90 e0       	ldi	r25, 0x00	; 0
    1ee8:	a0 e0       	ldi	r26, 0x00	; 0
    1eea:	b0 e4       	ldi	r27, 0x40	; 64
    1eec:	89 83       	std	Y+1, r24	; 0x01
    1eee:	9a 83       	std	Y+2, r25	; 0x02
    1ef0:	ab 83       	std	Y+3, r26	; 0x03
    1ef2:	bc 83       	std	Y+4, r27	; 0x04

00001ef4 <.LM152>:
    1ef4:	20 e0       	ldi	r18, 0x00	; 0
    1ef6:	30 e0       	ldi	r19, 0x00	; 0
    1ef8:	4a e7       	ldi	r20, 0x7A	; 122
    1efa:	53 e4       	ldi	r21, 0x43	; 67
    1efc:	69 81       	ldd	r22, Y+1	; 0x01
    1efe:	7a 81       	ldd	r23, Y+2	; 0x02
    1f00:	8b 81       	ldd	r24, Y+3	; 0x03
    1f02:	9c 81       	ldd	r25, Y+4	; 0x04
    1f04:	0e 94 ba 19 	call	0x3374	; 0x3374 <__mulsf3>
    1f08:	c4 51       	subi	r28, 0x14	; 20
    1f0a:	df 4f       	sbci	r29, 0xFF	; 255
    1f0c:	68 83       	st	Y, r22
    1f0e:	79 83       	std	Y+1, r23	; 0x01
    1f10:	8a 83       	std	Y+2, r24	; 0x02
    1f12:	9b 83       	std	Y+3, r25	; 0x03
    1f14:	cc 5e       	subi	r28, 0xEC	; 236
    1f16:	d0 40       	sbci	r29, 0x00	; 0
    1f18:	c4 51       	subi	r28, 0x14	; 20
    1f1a:	df 4f       	sbci	r29, 0xFF	; 255
    1f1c:	88 81       	ld	r24, Y
    1f1e:	99 81       	ldd	r25, Y+1	; 0x01
    1f20:	aa 81       	ldd	r26, Y+2	; 0x02
    1f22:	bb 81       	ldd	r27, Y+3	; 0x03
    1f24:	cc 5e       	subi	r28, 0xEC	; 236
    1f26:	d0 40       	sbci	r29, 0x00	; 0
    1f28:	8d 83       	std	Y+5, r24	; 0x05
    1f2a:	9e 83       	std	Y+6, r25	; 0x06
    1f2c:	af 83       	std	Y+7, r26	; 0x07
    1f2e:	b8 87       	std	Y+8, r27	; 0x08

00001f30 <.LM153>:
    1f30:	20 e0       	ldi	r18, 0x00	; 0
    1f32:	30 e0       	ldi	r19, 0x00	; 0
    1f34:	40 e8       	ldi	r20, 0x80	; 128
    1f36:	5f e3       	ldi	r21, 0x3F	; 63
    1f38:	6d 81       	ldd	r22, Y+5	; 0x05
    1f3a:	7e 81       	ldd	r23, Y+6	; 0x06
    1f3c:	8f 81       	ldd	r24, Y+7	; 0x07
    1f3e:	98 85       	ldd	r25, Y+8	; 0x08
    1f40:	0e 94 9a 18 	call	0x3134	; 0x3134 <__cmpsf2>
    1f44:	88 23       	and	r24, r24
    1f46:	2c f4       	brge	.+10     	; 0x1f52 <.L115>

00001f48 <.LM154>:
    1f48:	81 e0       	ldi	r24, 0x01	; 1
    1f4a:	90 e0       	ldi	r25, 0x00	; 0
    1f4c:	9a 87       	std	Y+10, r25	; 0x0a
    1f4e:	89 87       	std	Y+9, r24	; 0x09
    1f50:	72 c0       	rjmp	.+228    	; 0x2036 <.L77>

00001f52 <.L115>:
    1f52:	20 e0       	ldi	r18, 0x00	; 0
    1f54:	3f ef       	ldi	r19, 0xFF	; 255
    1f56:	4f e7       	ldi	r20, 0x7F	; 127
    1f58:	57 e4       	ldi	r21, 0x47	; 71
    1f5a:	6d 81       	ldd	r22, Y+5	; 0x05
    1f5c:	7e 81       	ldd	r23, Y+6	; 0x06
    1f5e:	8f 81       	ldd	r24, Y+7	; 0x07
    1f60:	98 85       	ldd	r25, Y+8	; 0x08
    1f62:	0e 94 b5 19 	call	0x336a	; 0x336a <__gesf2>
    1f66:	88 23       	and	r24, r24
    1f68:	09 f0       	breq	.+2      	; 0x1f6c <L0^A>

00001f6a <L0^A>:
    1f6a:	0c f4       	brge	.+2      	; 0x1f6e <.LM156>

00001f6c <L0^A>:
    1f6c:	4e c0       	rjmp	.+156    	; 0x200a <.L116>

00001f6e <.LM156>:
    1f6e:	20 e0       	ldi	r18, 0x00	; 0
    1f70:	30 e0       	ldi	r19, 0x00	; 0
    1f72:	40 e2       	ldi	r20, 0x20	; 32
    1f74:	51 e4       	ldi	r21, 0x41	; 65
    1f76:	69 81       	ldd	r22, Y+1	; 0x01
    1f78:	7a 81       	ldd	r23, Y+2	; 0x02
    1f7a:	8b 81       	ldd	r24, Y+3	; 0x03
    1f7c:	9c 81       	ldd	r25, Y+4	; 0x04
    1f7e:	0e 94 ba 19 	call	0x3374	; 0x3374 <__mulsf3>
    1f82:	c0 51       	subi	r28, 0x10	; 16
    1f84:	df 4f       	sbci	r29, 0xFF	; 255
    1f86:	68 83       	st	Y, r22
    1f88:	79 83       	std	Y+1, r23	; 0x01
    1f8a:	8a 83       	std	Y+2, r24	; 0x02
    1f8c:	9b 83       	std	Y+3, r25	; 0x03
    1f8e:	c0 5f       	subi	r28, 0xF0	; 240
    1f90:	d0 40       	sbci	r29, 0x00	; 0
    1f92:	c0 51       	subi	r28, 0x10	; 16
    1f94:	df 4f       	sbci	r29, 0xFF	; 255
    1f96:	88 81       	ld	r24, Y
    1f98:	99 81       	ldd	r25, Y+1	; 0x01
    1f9a:	aa 81       	ldd	r26, Y+2	; 0x02
    1f9c:	bb 81       	ldd	r27, Y+3	; 0x03
    1f9e:	c0 5f       	subi	r28, 0xF0	; 240
    1fa0:	d0 40       	sbci	r29, 0x00	; 0
    1fa2:	e4 96       	adiw	r28, 0x34	; 52
    1fa4:	8c af       	std	Y+60, r24	; 0x3c
    1fa6:	9d af       	std	Y+61, r25	; 0x3d
    1fa8:	ae af       	std	Y+62, r26	; 0x3e
    1faa:	bf af       	std	Y+63, r27	; 0x3f
    1fac:	e4 97       	sbiw	r28, 0x34	; 52

00001fae <.LM157>:
    1fae:	e4 96       	adiw	r28, 0x34	; 52
    1fb0:	6c ad       	ldd	r22, Y+60	; 0x3c
    1fb2:	7d ad       	ldd	r23, Y+61	; 0x3d
    1fb4:	8e ad       	ldd	r24, Y+62	; 0x3e
    1fb6:	9f ad       	ldd	r25, Y+63	; 0x3f
    1fb8:	e4 97       	sbiw	r28, 0x34	; 52
    1fba:	0e 94 11 19 	call	0x3222	; 0x3222 <__fixunssfsi>
    1fbe:	cc 50       	subi	r28, 0x0C	; 12
    1fc0:	df 4f       	sbci	r29, 0xFF	; 255
    1fc2:	68 83       	st	Y, r22
    1fc4:	79 83       	std	Y+1, r23	; 0x01
    1fc6:	8a 83       	std	Y+2, r24	; 0x02
    1fc8:	9b 83       	std	Y+3, r25	; 0x03
    1fca:	c4 5f       	subi	r28, 0xF4	; 244
    1fcc:	d0 40       	sbci	r29, 0x00	; 0
    1fce:	cc 50       	subi	r28, 0x0C	; 12
    1fd0:	df 4f       	sbci	r29, 0xFF	; 255
    1fd2:	a8 81       	ld	r26, Y
    1fd4:	b9 81       	ldd	r27, Y+1	; 0x01
    1fd6:	c4 5f       	subi	r28, 0xF4	; 244
    1fd8:	d0 40       	sbci	r29, 0x00	; 0
    1fda:	ba 87       	std	Y+10, r27	; 0x0a
    1fdc:	a9 87       	std	Y+9, r26	; 0x09

00001fde <.LM158>:
    1fde:	10 c0       	rjmp	.+32     	; 0x2000 <.L80>

00001fe0 <.L81>:
    1fe0:	89 e1       	ldi	r24, 0x19	; 25
    1fe2:	90 e0       	ldi	r25, 0x00	; 0
    1fe4:	9c 87       	std	Y+12, r25	; 0x0c
    1fe6:	8b 87       	std	Y+11, r24	; 0x0b

00001fe8 <.LM159>:
    1fe8:	8b 85       	ldd	r24, Y+11	; 0x0b
    1fea:	9c 85       	ldd	r25, Y+12	; 0x0c

00001fec <.L1^B17>:
    1fec:	01 97       	sbiw	r24, 0x01	; 1
    1fee:	f1 f7       	brne	.-4      	; 0x1fec <.L1^B17>
    1ff0:	9c 87       	std	Y+12, r25	; 0x0c
    1ff2:	8b 87       	std	Y+11, r24	; 0x0b

00001ff4 <.LM160>:
	...

00001ff6 <.LM161>:
    1ff6:	89 85       	ldd	r24, Y+9	; 0x09
    1ff8:	9a 85       	ldd	r25, Y+10	; 0x0a
    1ffa:	01 97       	sbiw	r24, 0x01	; 1
    1ffc:	9a 87       	std	Y+10, r25	; 0x0a
    1ffe:	89 87       	std	Y+9, r24	; 0x09

00002000 <.L80>:
    2000:	89 85       	ldd	r24, Y+9	; 0x09
    2002:	9a 85       	ldd	r25, Y+10	; 0x0a
    2004:	00 97       	sbiw	r24, 0x00	; 0
    2006:	61 f7       	brne	.-40     	; 0x1fe0 <.L81>

00002008 <.LM163>:
    2008:	21 c0       	rjmp	.+66     	; 0x204c <.L82>

0000200a <.L116>:
    200a:	6d 81       	ldd	r22, Y+5	; 0x05
    200c:	7e 81       	ldd	r23, Y+6	; 0x06
    200e:	8f 81       	ldd	r24, Y+7	; 0x07
    2010:	98 85       	ldd	r25, Y+8	; 0x08
    2012:	0e 94 11 19 	call	0x3222	; 0x3222 <__fixunssfsi>
    2016:	c8 50       	subi	r28, 0x08	; 8
    2018:	df 4f       	sbci	r29, 0xFF	; 255
    201a:	68 83       	st	Y, r22
    201c:	79 83       	std	Y+1, r23	; 0x01
    201e:	8a 83       	std	Y+2, r24	; 0x02
    2020:	9b 83       	std	Y+3, r25	; 0x03
    2022:	c8 5f       	subi	r28, 0xF8	; 248
    2024:	d0 40       	sbci	r29, 0x00	; 0
    2026:	c8 50       	subi	r28, 0x08	; 8
    2028:	df 4f       	sbci	r29, 0xFF	; 255
    202a:	e8 81       	ld	r30, Y
    202c:	f9 81       	ldd	r31, Y+1	; 0x01
    202e:	c8 5f       	subi	r28, 0xF8	; 248
    2030:	d0 40       	sbci	r29, 0x00	; 0
    2032:	fa 87       	std	Y+10, r31	; 0x0a
    2034:	e9 87       	std	Y+9, r30	; 0x09

00002036 <.L77>:
    2036:	89 85       	ldd	r24, Y+9	; 0x09
    2038:	9a 85       	ldd	r25, Y+10	; 0x0a
    203a:	9e 87       	std	Y+14, r25	; 0x0e
    203c:	8d 87       	std	Y+13, r24	; 0x0d

0000203e <.LM165>:
    203e:	8d 85       	ldd	r24, Y+13	; 0x0d
    2040:	9e 85       	ldd	r25, Y+14	; 0x0e

00002042 <.L1^B18>:
    2042:	01 97       	sbiw	r24, 0x01	; 1
    2044:	f1 f7       	brne	.-4      	; 0x2042 <.L1^B18>
    2046:	9e 87       	std	Y+14, r25	; 0x0e
    2048:	8d 87       	std	Y+13, r24	; 0x0d

0000204a <.LM166>:
	...

0000204c <.L82>:
    204c:	00 00       	nop
    204e:	c5 50       	subi	r28, 0x05	; 5
    2050:	df 4f       	sbci	r29, 0xFF	; 255
    2052:	0f b6       	in	r0, 0x3f	; 63
    2054:	f8 94       	cli
    2056:	de bf       	out	0x3e, r29	; 62
    2058:	0f be       	out	0x3f, r0	; 63
    205a:	cd bf       	out	0x3d, r28	; 61
    205c:	df 91       	pop	r29
    205e:	cf 91       	pop	r28
    2060:	1f 91       	pop	r17
    2062:	0f 91       	pop	r16
    2064:	08 95       	ret

00002066 <LCD_SendChar>:
    2066:	0f 93       	push	r16
    2068:	1f 93       	push	r17
    206a:	cf 93       	push	r28
    206c:	df 93       	push	r29
    206e:	cd b7       	in	r28, 0x3d	; 61
    2070:	de b7       	in	r29, 0x3e	; 62
    2072:	cb 5f       	subi	r28, 0xFB	; 251
    2074:	d1 09       	sbc	r29, r1
    2076:	0f b6       	in	r0, 0x3f	; 63
    2078:	f8 94       	cli
    207a:	de bf       	out	0x3e, r29	; 62
    207c:	0f be       	out	0x3f, r0	; 63
    207e:	cd bf       	out	0x3d, r28	; 61
    2080:	9e 01       	movw	r18, r28
    2082:	21 59       	subi	r18, 0x91	; 145
    2084:	3f 4f       	sbci	r19, 0xFF	; 255
    2086:	d9 01       	movw	r26, r18
    2088:	8c 93       	st	X, r24

0000208a <.LM169>:
    208a:	ce 01       	movw	r24, r28
    208c:	81 59       	subi	r24, 0x91	; 145
    208e:	9f 4f       	sbci	r25, 0xFF	; 255
    2090:	fc 01       	movw	r30, r24
    2092:	80 81       	ld	r24, Z
    2094:	82 95       	swap	r24
    2096:	8f 70       	andi	r24, 0x0F	; 15

00002098 <.LM170>:
    2098:	81 70       	andi	r24, 0x01	; 1
    209a:	48 2f       	mov	r20, r24
    209c:	64 e0       	ldi	r22, 0x04	; 4
    209e:	82 e0       	ldi	r24, 0x02	; 2
    20a0:	0e 94 4e 05 	call	0xa9c	; 0xa9c <GPIO_SetPinValue>

000020a4 <.LM171>:
    20a4:	ce 01       	movw	r24, r28
    20a6:	81 59       	subi	r24, 0x91	; 145
    20a8:	9f 4f       	sbci	r25, 0xFF	; 255
    20aa:	dc 01       	movw	r26, r24
    20ac:	8c 91       	ld	r24, X
    20ae:	82 95       	swap	r24
    20b0:	86 95       	lsr	r24
    20b2:	87 70       	andi	r24, 0x07	; 7

000020b4 <.LM172>:
    20b4:	81 70       	andi	r24, 0x01	; 1
    20b6:	48 2f       	mov	r20, r24
    20b8:	65 e0       	ldi	r22, 0x05	; 5
    20ba:	82 e0       	ldi	r24, 0x02	; 2
    20bc:	0e 94 4e 05 	call	0xa9c	; 0xa9c <GPIO_SetPinValue>

000020c0 <.LM173>:
    20c0:	ce 01       	movw	r24, r28
    20c2:	81 59       	subi	r24, 0x91	; 145
    20c4:	9f 4f       	sbci	r25, 0xFF	; 255
    20c6:	fc 01       	movw	r30, r24
    20c8:	80 81       	ld	r24, Z
    20ca:	82 95       	swap	r24
    20cc:	86 95       	lsr	r24
    20ce:	86 95       	lsr	r24
    20d0:	83 70       	andi	r24, 0x03	; 3

000020d2 <.LM174>:
    20d2:	81 70       	andi	r24, 0x01	; 1
    20d4:	48 2f       	mov	r20, r24
    20d6:	66 e0       	ldi	r22, 0x06	; 6
    20d8:	82 e0       	ldi	r24, 0x02	; 2
    20da:	0e 94 4e 05 	call	0xa9c	; 0xa9c <GPIO_SetPinValue>

000020de <.LM175>:
    20de:	ce 01       	movw	r24, r28
    20e0:	81 59       	subi	r24, 0x91	; 145
    20e2:	9f 4f       	sbci	r25, 0xFF	; 255
    20e4:	dc 01       	movw	r26, r24
    20e6:	8c 91       	ld	r24, X
    20e8:	88 1f       	adc	r24, r24
    20ea:	88 27       	eor	r24, r24
    20ec:	88 1f       	adc	r24, r24
    20ee:	48 2f       	mov	r20, r24
    20f0:	67 e0       	ldi	r22, 0x07	; 7
    20f2:	82 e0       	ldi	r24, 0x02	; 2
    20f4:	0e 94 4e 05 	call	0xa9c	; 0xa9c <GPIO_SetPinValue>

000020f8 <.LM176>:
    20f8:	41 e0       	ldi	r20, 0x01	; 1
    20fa:	60 e0       	ldi	r22, 0x00	; 0
    20fc:	82 e0       	ldi	r24, 0x02	; 2
    20fe:	0e 94 4e 05 	call	0xa9c	; 0xa9c <GPIO_SetPinValue>

00002102 <.LM177>:
    2102:	41 e0       	ldi	r20, 0x01	; 1
    2104:	62 e0       	ldi	r22, 0x02	; 2
    2106:	82 e0       	ldi	r24, 0x02	; 2
    2108:	0e 94 4e 05 	call	0xa9c	; 0xa9c <GPIO_SetPinValue>
    210c:	9e 01       	movw	r18, r28
    210e:	21 5b       	subi	r18, 0xB1	; 177
    2110:	3f 4f       	sbci	r19, 0xFF	; 255
    2112:	80 e0       	ldi	r24, 0x00	; 0
    2114:	90 e0       	ldi	r25, 0x00	; 0
    2116:	a0 e8       	ldi	r26, 0x80	; 128
    2118:	bf e3       	ldi	r27, 0x3F	; 63
    211a:	f9 01       	movw	r30, r18
    211c:	80 83       	st	Z, r24
    211e:	91 83       	std	Z+1, r25	; 0x01
    2120:	a2 83       	std	Z+2, r26	; 0x02
    2122:	b3 83       	std	Z+3, r27	; 0x03

00002124 <.LM178>:
    2124:	8e 01       	movw	r16, r28
    2126:	0d 5a       	subi	r16, 0xAD	; 173
    2128:	1f 4f       	sbci	r17, 0xFF	; 255
    212a:	ce 01       	movw	r24, r28
    212c:	81 5b       	subi	r24, 0xB1	; 177
    212e:	9f 4f       	sbci	r25, 0xFF	; 255
    2130:	2b ea       	ldi	r18, 0xAB	; 171
    2132:	3a ea       	ldi	r19, 0xAA	; 170
    2134:	4a ea       	ldi	r20, 0xAA	; 170
    2136:	5e e3       	ldi	r21, 0x3E	; 62
    2138:	dc 01       	movw	r26, r24
    213a:	6d 91       	ld	r22, X+
    213c:	7d 91       	ld	r23, X+
    213e:	8d 91       	ld	r24, X+
    2140:	9c 91       	ld	r25, X
    2142:	0e 94 ba 19 	call	0x3374	; 0x3374 <__mulsf3>
    2146:	c0 58       	subi	r28, 0x80	; 128
    2148:	df 4f       	sbci	r29, 0xFF	; 255
    214a:	68 83       	st	Y, r22
    214c:	79 83       	std	Y+1, r23	; 0x01
    214e:	8a 83       	std	Y+2, r24	; 0x02
    2150:	9b 83       	std	Y+3, r25	; 0x03
    2152:	c0 58       	subi	r28, 0x80	; 128
    2154:	d0 40       	sbci	r29, 0x00	; 0
    2156:	c0 58       	subi	r28, 0x80	; 128
    2158:	df 4f       	sbci	r29, 0xFF	; 255
    215a:	88 81       	ld	r24, Y
    215c:	99 81       	ldd	r25, Y+1	; 0x01
    215e:	aa 81       	ldd	r26, Y+2	; 0x02
    2160:	bb 81       	ldd	r27, Y+3	; 0x03
    2162:	c0 58       	subi	r28, 0x80	; 128
    2164:	d0 40       	sbci	r29, 0x00	; 0
    2166:	f8 01       	movw	r30, r16
    2168:	80 83       	st	Z, r24
    216a:	91 83       	std	Z+1, r25	; 0x01
    216c:	a2 83       	std	Z+2, r26	; 0x02
    216e:	b3 83       	std	Z+3, r27	; 0x03

00002170 <.LM179>:
    2170:	8e 01       	movw	r16, r28
    2172:	09 5a       	subi	r16, 0xA9	; 169
    2174:	1f 4f       	sbci	r17, 0xFF	; 255
    2176:	ce 01       	movw	r24, r28
    2178:	81 5b       	subi	r24, 0xB1	; 177
    217a:	9f 4f       	sbci	r25, 0xFF	; 255
    217c:	20 e0       	ldi	r18, 0x00	; 0
    217e:	30 e0       	ldi	r19, 0x00	; 0
    2180:	40 e8       	ldi	r20, 0x80	; 128
    2182:	5e e3       	ldi	r21, 0x3E	; 62
    2184:	dc 01       	movw	r26, r24
    2186:	6d 91       	ld	r22, X+
    2188:	7d 91       	ld	r23, X+
    218a:	8d 91       	ld	r24, X+
    218c:	9c 91       	ld	r25, X
    218e:	0e 94 ba 19 	call	0x3374	; 0x3374 <__mulsf3>
    2192:	cc 57       	subi	r28, 0x7C	; 124
    2194:	df 4f       	sbci	r29, 0xFF	; 255
    2196:	68 83       	st	Y, r22
    2198:	79 83       	std	Y+1, r23	; 0x01
    219a:	8a 83       	std	Y+2, r24	; 0x02
    219c:	9b 83       	std	Y+3, r25	; 0x03
    219e:	c4 58       	subi	r28, 0x84	; 132
    21a0:	d0 40       	sbci	r29, 0x00	; 0
    21a2:	cc 57       	subi	r28, 0x7C	; 124
    21a4:	df 4f       	sbci	r29, 0xFF	; 255
    21a6:	88 81       	ld	r24, Y
    21a8:	99 81       	ldd	r25, Y+1	; 0x01
    21aa:	aa 81       	ldd	r26, Y+2	; 0x02
    21ac:	bb 81       	ldd	r27, Y+3	; 0x03
    21ae:	c4 58       	subi	r28, 0x84	; 132
    21b0:	d0 40       	sbci	r29, 0x00	; 0
    21b2:	f8 01       	movw	r30, r16
    21b4:	80 83       	st	Z, r24
    21b6:	91 83       	std	Z+1, r25	; 0x01
    21b8:	a2 83       	std	Z+2, r26	; 0x02
    21ba:	b3 83       	std	Z+3, r27	; 0x03

000021bc <.LM180>:
    21bc:	ce 01       	movw	r24, r28
    21be:	8d 5a       	subi	r24, 0xAD	; 173
    21c0:	9f 4f       	sbci	r25, 0xFF	; 255
    21c2:	20 e0       	ldi	r18, 0x00	; 0
    21c4:	30 e0       	ldi	r19, 0x00	; 0
    21c6:	40 e8       	ldi	r20, 0x80	; 128
    21c8:	5f e3       	ldi	r21, 0x3F	; 63
    21ca:	dc 01       	movw	r26, r24
    21cc:	6d 91       	ld	r22, X+
    21ce:	7d 91       	ld	r23, X+
    21d0:	8d 91       	ld	r24, X+
    21d2:	9c 91       	ld	r25, X
    21d4:	0e 94 9a 18 	call	0x3134	; 0x3134 <__cmpsf2>
    21d8:	88 23       	and	r24, r24
    21da:	3c f4       	brge	.+14     	; 0x21ea <.L191>

000021dc <.LM181>:
    21dc:	ce 01       	movw	r24, r28
    21de:	85 5a       	subi	r24, 0xA5	; 165
    21e0:	9f 4f       	sbci	r25, 0xFF	; 255
    21e2:	21 e0       	ldi	r18, 0x01	; 1
    21e4:	fc 01       	movw	r30, r24
    21e6:	20 83       	st	Z, r18
    21e8:	a0 c1       	rjmp	.+832    	; 0x252a <.L120>

000021ea <.L191>:
    21ea:	ce 01       	movw	r24, r28
    21ec:	89 5a       	subi	r24, 0xA9	; 169
    21ee:	9f 4f       	sbci	r25, 0xFF	; 255
    21f0:	20 e0       	ldi	r18, 0x00	; 0
    21f2:	3f ef       	ldi	r19, 0xFF	; 255
    21f4:	4f e7       	ldi	r20, 0x7F	; 127
    21f6:	57 e4       	ldi	r21, 0x47	; 71
    21f8:	dc 01       	movw	r26, r24
    21fa:	6d 91       	ld	r22, X+
    21fc:	7d 91       	ld	r23, X+
    21fe:	8d 91       	ld	r24, X+
    2200:	9c 91       	ld	r25, X
    2202:	0e 94 b5 19 	call	0x336a	; 0x336a <__gesf2>
    2206:	88 23       	and	r24, r24
    2208:	09 f0       	breq	.+2      	; 0x220c <L0^A>

0000220a <L0^A>:
    220a:	0c f4       	brge	.+2      	; 0x220e <.LM183>

0000220c <L0^A>:
    220c:	26 c1       	rjmp	.+588    	; 0x245a <.L192>

0000220e <.LM183>:
    220e:	ce 01       	movw	r24, r28
    2210:	81 5b       	subi	r24, 0xB1	; 177
    2212:	9f 4f       	sbci	r25, 0xFF	; 255
    2214:	20 e0       	ldi	r18, 0x00	; 0
    2216:	30 e0       	ldi	r19, 0x00	; 0
    2218:	4a e7       	ldi	r20, 0x7A	; 122
    221a:	54 e4       	ldi	r21, 0x44	; 68
    221c:	fc 01       	movw	r30, r24
    221e:	60 81       	ld	r22, Z
    2220:	71 81       	ldd	r23, Z+1	; 0x01
    2222:	82 81       	ldd	r24, Z+2	; 0x02
    2224:	93 81       	ldd	r25, Z+3	; 0x03
    2226:	0e 94 9f 18 	call	0x313e	; 0x313e <__divsf3>
    222a:	c8 57       	subi	r28, 0x78	; 120
    222c:	df 4f       	sbci	r29, 0xFF	; 255
    222e:	68 83       	st	Y, r22
    2230:	79 83       	std	Y+1, r23	; 0x01
    2232:	8a 83       	std	Y+2, r24	; 0x02
    2234:	9b 83       	std	Y+3, r25	; 0x03
    2236:	c8 58       	subi	r28, 0x88	; 136
    2238:	d0 40       	sbci	r29, 0x00	; 0
    223a:	c8 57       	subi	r28, 0x78	; 120
    223c:	df 4f       	sbci	r29, 0xFF	; 255
    223e:	88 81       	ld	r24, Y
    2240:	99 81       	ldd	r25, Y+1	; 0x01
    2242:	aa 81       	ldd	r26, Y+2	; 0x02
    2244:	bb 81       	ldd	r27, Y+3	; 0x03
    2246:	c8 58       	subi	r28, 0x88	; 136
    2248:	d0 40       	sbci	r29, 0x00	; 0
    224a:	9e 01       	movw	r18, r28
    224c:	24 5a       	subi	r18, 0xA4	; 164
    224e:	3f 4f       	sbci	r19, 0xFF	; 255
    2250:	f9 01       	movw	r30, r18
    2252:	80 83       	st	Z, r24
    2254:	91 83       	std	Z+1, r25	; 0x01
    2256:	a2 83       	std	Z+2, r26	; 0x02
    2258:	b3 83       	std	Z+3, r27	; 0x03

0000225a <.LM184>:
    225a:	8e 01       	movw	r16, r28
    225c:	00 5a       	subi	r16, 0xA0	; 160
    225e:	1f 4f       	sbci	r17, 0xFF	; 255
    2260:	ce 01       	movw	r24, r28
    2262:	84 5a       	subi	r24, 0xA4	; 164
    2264:	9f 4f       	sbci	r25, 0xFF	; 255
    2266:	20 e0       	ldi	r18, 0x00	; 0
    2268:	30 e0       	ldi	r19, 0x00	; 0
    226a:	4a e7       	ldi	r20, 0x7A	; 122
    226c:	53 e4       	ldi	r21, 0x43	; 67
    226e:	dc 01       	movw	r26, r24
    2270:	6d 91       	ld	r22, X+
    2272:	7d 91       	ld	r23, X+
    2274:	8d 91       	ld	r24, X+
    2276:	9c 91       	ld	r25, X
    2278:	0e 94 ba 19 	call	0x3374	; 0x3374 <__mulsf3>
    227c:	c4 57       	subi	r28, 0x74	; 116
    227e:	df 4f       	sbci	r29, 0xFF	; 255
    2280:	68 83       	st	Y, r22
    2282:	79 83       	std	Y+1, r23	; 0x01
    2284:	8a 83       	std	Y+2, r24	; 0x02
    2286:	9b 83       	std	Y+3, r25	; 0x03
    2288:	cc 58       	subi	r28, 0x8C	; 140
    228a:	d0 40       	sbci	r29, 0x00	; 0
    228c:	c4 57       	subi	r28, 0x74	; 116
    228e:	df 4f       	sbci	r29, 0xFF	; 255
    2290:	88 81       	ld	r24, Y
    2292:	99 81       	ldd	r25, Y+1	; 0x01
    2294:	aa 81       	ldd	r26, Y+2	; 0x02
    2296:	bb 81       	ldd	r27, Y+3	; 0x03
    2298:	cc 58       	subi	r28, 0x8C	; 140
    229a:	d0 40       	sbci	r29, 0x00	; 0
    229c:	f8 01       	movw	r30, r16
    229e:	80 83       	st	Z, r24
    22a0:	91 83       	std	Z+1, r25	; 0x01
    22a2:	a2 83       	std	Z+2, r26	; 0x02
    22a4:	b3 83       	std	Z+3, r27	; 0x03

000022a6 <.LM185>:
    22a6:	ce 01       	movw	r24, r28
    22a8:	80 5a       	subi	r24, 0xA0	; 160
    22aa:	9f 4f       	sbci	r25, 0xFF	; 255
    22ac:	20 e0       	ldi	r18, 0x00	; 0
    22ae:	30 e0       	ldi	r19, 0x00	; 0
    22b0:	40 e8       	ldi	r20, 0x80	; 128
    22b2:	5f e3       	ldi	r21, 0x3F	; 63
    22b4:	dc 01       	movw	r26, r24
    22b6:	6d 91       	ld	r22, X+
    22b8:	7d 91       	ld	r23, X+
    22ba:	8d 91       	ld	r24, X+
    22bc:	9c 91       	ld	r25, X
    22be:	0e 94 9a 18 	call	0x3134	; 0x3134 <__cmpsf2>
    22c2:	88 23       	and	r24, r24
    22c4:	4c f4       	brge	.+18     	; 0x22d8 <.L193>

000022c6 <.LM186>:
    22c6:	ce 01       	movw	r24, r28
    22c8:	8c 59       	subi	r24, 0x9C	; 156
    22ca:	9f 4f       	sbci	r25, 0xFF	; 255
    22cc:	21 e0       	ldi	r18, 0x01	; 1
    22ce:	30 e0       	ldi	r19, 0x00	; 0
    22d0:	fc 01       	movw	r30, r24
    22d2:	31 83       	std	Z+1, r19	; 0x01
    22d4:	20 83       	st	Z, r18
    22d6:	a5 c0       	rjmp	.+330    	; 0x2422 <.L125>

000022d8 <.L193>:
    22d8:	ce 01       	movw	r24, r28
    22da:	80 5a       	subi	r24, 0xA0	; 160
    22dc:	9f 4f       	sbci	r25, 0xFF	; 255
    22de:	20 e0       	ldi	r18, 0x00	; 0
    22e0:	3f ef       	ldi	r19, 0xFF	; 255
    22e2:	4f e7       	ldi	r20, 0x7F	; 127
    22e4:	57 e4       	ldi	r21, 0x47	; 71
    22e6:	dc 01       	movw	r26, r24
    22e8:	6d 91       	ld	r22, X+
    22ea:	7d 91       	ld	r23, X+
    22ec:	8d 91       	ld	r24, X+
    22ee:	9c 91       	ld	r25, X
    22f0:	0e 94 b5 19 	call	0x336a	; 0x336a <__gesf2>
    22f4:	88 23       	and	r24, r24
    22f6:	09 f0       	breq	.+2      	; 0x22fa <L0^A>

000022f8 <L0^A>:
    22f8:	0c f4       	brge	.+2      	; 0x22fc <.LM188>

000022fa <L0^A>:
    22fa:	75 c0       	rjmp	.+234    	; 0x23e6 <.L194>

000022fc <.LM188>:
    22fc:	ce 01       	movw	r24, r28
    22fe:	84 5a       	subi	r24, 0xA4	; 164
    2300:	9f 4f       	sbci	r25, 0xFF	; 255
    2302:	20 e0       	ldi	r18, 0x00	; 0
    2304:	30 e0       	ldi	r19, 0x00	; 0
    2306:	40 e2       	ldi	r20, 0x20	; 32
    2308:	51 e4       	ldi	r21, 0x41	; 65
    230a:	fc 01       	movw	r30, r24
    230c:	60 81       	ld	r22, Z
    230e:	71 81       	ldd	r23, Z+1	; 0x01
    2310:	82 81       	ldd	r24, Z+2	; 0x02
    2312:	93 81       	ldd	r25, Z+3	; 0x03
    2314:	0e 94 ba 19 	call	0x3374	; 0x3374 <__mulsf3>
    2318:	c0 57       	subi	r28, 0x70	; 112
    231a:	df 4f       	sbci	r29, 0xFF	; 255
    231c:	68 83       	st	Y, r22
    231e:	79 83       	std	Y+1, r23	; 0x01
    2320:	8a 83       	std	Y+2, r24	; 0x02
    2322:	9b 83       	std	Y+3, r25	; 0x03
    2324:	c0 59       	subi	r28, 0x90	; 144
    2326:	d0 40       	sbci	r29, 0x00	; 0
    2328:	c0 57       	subi	r28, 0x70	; 112
    232a:	df 4f       	sbci	r29, 0xFF	; 255
    232c:	88 81       	ld	r24, Y
    232e:	99 81       	ldd	r25, Y+1	; 0x01
    2330:	aa 81       	ldd	r26, Y+2	; 0x02
    2332:	bb 81       	ldd	r27, Y+3	; 0x03
    2334:	c0 59       	subi	r28, 0x90	; 144
    2336:	d0 40       	sbci	r29, 0x00	; 0
    2338:	c4 58       	subi	r28, 0x84	; 132
    233a:	df 4f       	sbci	r29, 0xFF	; 255
    233c:	88 83       	st	Y, r24
    233e:	99 83       	std	Y+1, r25	; 0x01
    2340:	aa 83       	std	Y+2, r26	; 0x02
    2342:	bb 83       	std	Y+3, r27	; 0x03
    2344:	cc 57       	subi	r28, 0x7C	; 124
    2346:	d0 40       	sbci	r29, 0x00	; 0

00002348 <.LM189>:
    2348:	8e 01       	movw	r16, r28
    234a:	0c 59       	subi	r16, 0x9C	; 156
    234c:	1f 4f       	sbci	r17, 0xFF	; 255
    234e:	c4 58       	subi	r28, 0x84	; 132
    2350:	df 4f       	sbci	r29, 0xFF	; 255
    2352:	68 81       	ld	r22, Y
    2354:	79 81       	ldd	r23, Y+1	; 0x01
    2356:	8a 81       	ldd	r24, Y+2	; 0x02
    2358:	9b 81       	ldd	r25, Y+3	; 0x03
    235a:	cc 57       	subi	r28, 0x7C	; 124
    235c:	d0 40       	sbci	r29, 0x00	; 0
    235e:	0e 94 11 19 	call	0x3222	; 0x3222 <__fixunssfsi>
    2362:	cc 56       	subi	r28, 0x6C	; 108
    2364:	df 4f       	sbci	r29, 0xFF	; 255
    2366:	68 83       	st	Y, r22
    2368:	79 83       	std	Y+1, r23	; 0x01
    236a:	8a 83       	std	Y+2, r24	; 0x02
    236c:	9b 83       	std	Y+3, r25	; 0x03
    236e:	c4 59       	subi	r28, 0x94	; 148
    2370:	d0 40       	sbci	r29, 0x00	; 0
    2372:	cc 56       	subi	r28, 0x6C	; 108
    2374:	df 4f       	sbci	r29, 0xFF	; 255
    2376:	e8 81       	ld	r30, Y
    2378:	f9 81       	ldd	r31, Y+1	; 0x01
    237a:	c4 59       	subi	r28, 0x94	; 148
    237c:	d0 40       	sbci	r29, 0x00	; 0
    237e:	d8 01       	movw	r26, r16
    2380:	11 96       	adiw	r26, 0x01	; 1
    2382:	fc 93       	st	X, r31
    2384:	ee 93       	st	-X, r30

00002386 <.LM190>:
    2386:	26 c0       	rjmp	.+76     	; 0x23d4 <.L128>

00002388 <.L129>:
    2388:	ce 01       	movw	r24, r28
    238a:	8a 59       	subi	r24, 0x9A	; 154
    238c:	9f 4f       	sbci	r25, 0xFF	; 255
    238e:	29 e1       	ldi	r18, 0x19	; 25
    2390:	30 e0       	ldi	r19, 0x00	; 0
    2392:	dc 01       	movw	r26, r24
    2394:	2d 93       	st	X+, r18
    2396:	3c 93       	st	X, r19

00002398 <.LM191>:
    2398:	ce 01       	movw	r24, r28
    239a:	8a 59       	subi	r24, 0x9A	; 154
    239c:	9f 4f       	sbci	r25, 0xFF	; 255
    239e:	fc 01       	movw	r30, r24
    23a0:	80 81       	ld	r24, Z
    23a2:	91 81       	ldd	r25, Z+1	; 0x01

000023a4 <.L1^B19>:
    23a4:	01 97       	sbiw	r24, 0x01	; 1
    23a6:	f1 f7       	brne	.-4      	; 0x23a4 <.L1^B19>
    23a8:	9e 01       	movw	r18, r28
    23aa:	2a 59       	subi	r18, 0x9A	; 154
    23ac:	3f 4f       	sbci	r19, 0xFF	; 255
    23ae:	d9 01       	movw	r26, r18
    23b0:	8d 93       	st	X+, r24
    23b2:	9c 93       	st	X, r25

000023b4 <.LM192>:
	...

000023b6 <.LM193>:
    23b6:	ce 01       	movw	r24, r28
    23b8:	8c 59       	subi	r24, 0x9C	; 156
    23ba:	9f 4f       	sbci	r25, 0xFF	; 255
    23bc:	9e 01       	movw	r18, r28
    23be:	2c 59       	subi	r18, 0x9C	; 156
    23c0:	3f 4f       	sbci	r19, 0xFF	; 255
    23c2:	f9 01       	movw	r30, r18
    23c4:	20 81       	ld	r18, Z
    23c6:	31 81       	ldd	r19, Z+1	; 0x01
    23c8:	21 50       	subi	r18, 0x01	; 1
    23ca:	31 09       	sbc	r19, r1
    23cc:	dc 01       	movw	r26, r24
    23ce:	11 96       	adiw	r26, 0x01	; 1
    23d0:	3c 93       	st	X, r19
    23d2:	2e 93       	st	-X, r18

000023d4 <.L128>:
    23d4:	ce 01       	movw	r24, r28
    23d6:	8c 59       	subi	r24, 0x9C	; 156
    23d8:	9f 4f       	sbci	r25, 0xFF	; 255
    23da:	fc 01       	movw	r30, r24
    23dc:	80 81       	ld	r24, Z
    23de:	91 81       	ldd	r25, Z+1	; 0x01
    23e0:	00 97       	sbiw	r24, 0x00	; 0
    23e2:	91 f6       	brne	.-92     	; 0x2388 <.L129>

000023e4 <.LM195>:
    23e4:	a2 c0       	rjmp	.+324    	; 0x252a <.L120>

000023e6 <.L194>:
    23e6:	8e 01       	movw	r16, r28
    23e8:	0c 59       	subi	r16, 0x9C	; 156
    23ea:	1f 4f       	sbci	r17, 0xFF	; 255
    23ec:	ce 01       	movw	r24, r28
    23ee:	80 5a       	subi	r24, 0xA0	; 160
    23f0:	9f 4f       	sbci	r25, 0xFF	; 255
    23f2:	dc 01       	movw	r26, r24
    23f4:	6d 91       	ld	r22, X+
    23f6:	7d 91       	ld	r23, X+
    23f8:	8d 91       	ld	r24, X+
    23fa:	9c 91       	ld	r25, X
    23fc:	0e 94 11 19 	call	0x3222	; 0x3222 <__fixunssfsi>
    2400:	c8 56       	subi	r28, 0x68	; 104
    2402:	df 4f       	sbci	r29, 0xFF	; 255
    2404:	68 83       	st	Y, r22
    2406:	79 83       	std	Y+1, r23	; 0x01
    2408:	8a 83       	std	Y+2, r24	; 0x02
    240a:	9b 83       	std	Y+3, r25	; 0x03
    240c:	c8 59       	subi	r28, 0x98	; 152
    240e:	d0 40       	sbci	r29, 0x00	; 0
    2410:	c8 56       	subi	r28, 0x68	; 104
    2412:	df 4f       	sbci	r29, 0xFF	; 255
    2414:	88 81       	ld	r24, Y
    2416:	99 81       	ldd	r25, Y+1	; 0x01
    2418:	c8 59       	subi	r28, 0x98	; 152
    241a:	d0 40       	sbci	r29, 0x00	; 0
    241c:	f8 01       	movw	r30, r16
    241e:	91 83       	std	Z+1, r25	; 0x01
    2420:	80 83       	st	Z, r24

00002422 <.L125>:
    2422:	ce 01       	movw	r24, r28
    2424:	88 59       	subi	r24, 0x98	; 152
    2426:	9f 4f       	sbci	r25, 0xFF	; 255
    2428:	9e 01       	movw	r18, r28
    242a:	2c 59       	subi	r18, 0x9C	; 156
    242c:	3f 4f       	sbci	r19, 0xFF	; 255
    242e:	d9 01       	movw	r26, r18
    2430:	2d 91       	ld	r18, X+
    2432:	3c 91       	ld	r19, X
    2434:	fc 01       	movw	r30, r24
    2436:	31 83       	std	Z+1, r19	; 0x01
    2438:	20 83       	st	Z, r18

0000243a <.LM197>:
    243a:	ce 01       	movw	r24, r28
    243c:	88 59       	subi	r24, 0x98	; 152
    243e:	9f 4f       	sbci	r25, 0xFF	; 255
    2440:	dc 01       	movw	r26, r24
    2442:	8d 91       	ld	r24, X+
    2444:	9c 91       	ld	r25, X
    2446:	11 97       	sbiw	r26, 0x01	; 1

00002448 <.L1^B20>:
    2448:	01 97       	sbiw	r24, 0x01	; 1
    244a:	f1 f7       	brne	.-4      	; 0x2448 <.L1^B20>
    244c:	9e 01       	movw	r18, r28
    244e:	28 59       	subi	r18, 0x98	; 152
    2450:	3f 4f       	sbci	r19, 0xFF	; 255
    2452:	f9 01       	movw	r30, r18
    2454:	91 83       	std	Z+1, r25	; 0x01
    2456:	80 83       	st	Z, r24

00002458 <.LM198>:
    2458:	68 c0       	rjmp	.+208    	; 0x252a <.L120>

0000245a <.L192>:
    245a:	ce 01       	movw	r24, r28
    245c:	8d 5a       	subi	r24, 0xAD	; 173
    245e:	9f 4f       	sbci	r25, 0xFF	; 255
    2460:	20 e0       	ldi	r18, 0x00	; 0
    2462:	30 e0       	ldi	r19, 0x00	; 0
    2464:	4f e7       	ldi	r20, 0x7F	; 127
    2466:	53 e4       	ldi	r21, 0x43	; 67
    2468:	dc 01       	movw	r26, r24
    246a:	6d 91       	ld	r22, X+
    246c:	7d 91       	ld	r23, X+
    246e:	8d 91       	ld	r24, X+
    2470:	9c 91       	ld	r25, X
    2472:	0e 94 b5 19 	call	0x336a	; 0x336a <__gesf2>
    2476:	88 23       	and	r24, r24
    2478:	e1 f1       	breq	.+120    	; 0x24f2 <.L195>
    247a:	dc f1       	brlt	.+118    	; 0x24f2 <.L195>

0000247c <.LM200>:
    247c:	8e 01       	movw	r16, r28
    247e:	06 59       	subi	r16, 0x96	; 150
    2480:	1f 4f       	sbci	r17, 0xFF	; 255
    2482:	ce 01       	movw	r24, r28
    2484:	89 5a       	subi	r24, 0xA9	; 169
    2486:	9f 4f       	sbci	r25, 0xFF	; 255
    2488:	fc 01       	movw	r30, r24
    248a:	60 81       	ld	r22, Z
    248c:	71 81       	ldd	r23, Z+1	; 0x01
    248e:	82 81       	ldd	r24, Z+2	; 0x02
    2490:	93 81       	ldd	r25, Z+3	; 0x03
    2492:	0e 94 11 19 	call	0x3222	; 0x3222 <__fixunssfsi>
    2496:	c4 56       	subi	r28, 0x64	; 100
    2498:	df 4f       	sbci	r29, 0xFF	; 255
    249a:	68 83       	st	Y, r22
    249c:	79 83       	std	Y+1, r23	; 0x01
    249e:	8a 83       	std	Y+2, r24	; 0x02
    24a0:	9b 83       	std	Y+3, r25	; 0x03
    24a2:	cc 59       	subi	r28, 0x9C	; 156
    24a4:	d0 40       	sbci	r29, 0x00	; 0
    24a6:	c4 56       	subi	r28, 0x64	; 100
    24a8:	df 4f       	sbci	r29, 0xFF	; 255
    24aa:	e8 81       	ld	r30, Y
    24ac:	f9 81       	ldd	r31, Y+1	; 0x01
    24ae:	cc 59       	subi	r28, 0x9C	; 156
    24b0:	d0 40       	sbci	r29, 0x00	; 0
    24b2:	d8 01       	movw	r26, r16
    24b4:	ed 93       	st	X+, r30
    24b6:	fc 93       	st	X, r31
    24b8:	ce 01       	movw	r24, r28
    24ba:	84 59       	subi	r24, 0x94	; 148
    24bc:	9f 4f       	sbci	r25, 0xFF	; 255
    24be:	9e 01       	movw	r18, r28
    24c0:	26 59       	subi	r18, 0x96	; 150
    24c2:	3f 4f       	sbci	r19, 0xFF	; 255
    24c4:	d9 01       	movw	r26, r18
    24c6:	2d 91       	ld	r18, X+
    24c8:	3c 91       	ld	r19, X
    24ca:	fc 01       	movw	r30, r24
    24cc:	31 83       	std	Z+1, r19	; 0x01
    24ce:	20 83       	st	Z, r18

000024d0 <.LM201>:
    24d0:	ce 01       	movw	r24, r28
    24d2:	84 59       	subi	r24, 0x94	; 148
    24d4:	9f 4f       	sbci	r25, 0xFF	; 255
    24d6:	dc 01       	movw	r26, r24
    24d8:	8d 91       	ld	r24, X+
    24da:	9c 91       	ld	r25, X
    24dc:	11 97       	sbiw	r26, 0x01	; 1

000024de <.L1^B21>:
    24de:	01 97       	sbiw	r24, 0x01	; 1
    24e0:	f1 f7       	brne	.-4      	; 0x24de <.L1^B21>
    24e2:	9e 01       	movw	r18, r28
    24e4:	24 59       	subi	r18, 0x94	; 148
    24e6:	3f 4f       	sbci	r19, 0xFF	; 255
    24e8:	f9 01       	movw	r30, r18
    24ea:	91 83       	std	Z+1, r25	; 0x01
    24ec:	80 83       	st	Z, r24

000024ee <.LM202>:
	...

000024f0 <.LM203>:
    24f0:	34 c0       	rjmp	.+104    	; 0x255a <.L133>

000024f2 <.L195>:
    24f2:	8e 01       	movw	r16, r28
    24f4:	05 5a       	subi	r16, 0xA5	; 165
    24f6:	1f 4f       	sbci	r17, 0xFF	; 255
    24f8:	ce 01       	movw	r24, r28
    24fa:	8d 5a       	subi	r24, 0xAD	; 173
    24fc:	9f 4f       	sbci	r25, 0xFF	; 255
    24fe:	dc 01       	movw	r26, r24
    2500:	6d 91       	ld	r22, X+
    2502:	7d 91       	ld	r23, X+
    2504:	8d 91       	ld	r24, X+
    2506:	9c 91       	ld	r25, X
    2508:	0e 94 11 19 	call	0x3222	; 0x3222 <__fixunssfsi>
    250c:	c0 56       	subi	r28, 0x60	; 96
    250e:	df 4f       	sbci	r29, 0xFF	; 255
    2510:	68 83       	st	Y, r22
    2512:	79 83       	std	Y+1, r23	; 0x01
    2514:	8a 83       	std	Y+2, r24	; 0x02
    2516:	9b 83       	std	Y+3, r25	; 0x03
    2518:	c0 5a       	subi	r28, 0xA0	; 160
    251a:	d0 40       	sbci	r29, 0x00	; 0
    251c:	c0 56       	subi	r28, 0x60	; 96
    251e:	df 4f       	sbci	r29, 0xFF	; 255
    2520:	88 81       	ld	r24, Y
    2522:	c0 5a       	subi	r28, 0xA0	; 160
    2524:	d0 40       	sbci	r29, 0x00	; 0
    2526:	f8 01       	movw	r30, r16
    2528:	80 83       	st	Z, r24

0000252a <.L120>:
    252a:	ce 01       	movw	r24, r28
    252c:	82 59       	subi	r24, 0x92	; 146
    252e:	9f 4f       	sbci	r25, 0xFF	; 255
    2530:	9e 01       	movw	r18, r28
    2532:	25 5a       	subi	r18, 0xA5	; 165
    2534:	3f 4f       	sbci	r19, 0xFF	; 255
    2536:	d9 01       	movw	r26, r18
    2538:	2c 91       	ld	r18, X
    253a:	fc 01       	movw	r30, r24
    253c:	20 83       	st	Z, r18

0000253e <.LM205>:
    253e:	ce 01       	movw	r24, r28
    2540:	82 59       	subi	r24, 0x92	; 146
    2542:	9f 4f       	sbci	r25, 0xFF	; 255
    2544:	dc 01       	movw	r26, r24
    2546:	8c 91       	ld	r24, X
    2548:	28 2f       	mov	r18, r24

0000254a <.L1^B22>:
    254a:	2a 95       	dec	r18
    254c:	f1 f7       	brne	.-4      	; 0x254a <.L1^B22>
    254e:	ce 01       	movw	r24, r28
    2550:	82 59       	subi	r24, 0x92	; 146
    2552:	9f 4f       	sbci	r25, 0xFF	; 255
    2554:	fc 01       	movw	r30, r24
    2556:	20 83       	st	Z, r18

00002558 <.LM206>:
	...

0000255a <.L133>:
    255a:	40 e0       	ldi	r20, 0x00	; 0
    255c:	62 e0       	ldi	r22, 0x02	; 2
    255e:	82 e0       	ldi	r24, 0x02	; 2
    2560:	0e 94 4e 05 	call	0xa9c	; 0xa9c <GPIO_SetPinValue>
    2564:	80 e0       	ldi	r24, 0x00	; 0
    2566:	90 e0       	ldi	r25, 0x00	; 0
    2568:	a8 e4       	ldi	r26, 0x48	; 72
    256a:	b3 e4       	ldi	r27, 0x43	; 67
    256c:	8f a7       	std	Y+47, r24	; 0x2f
    256e:	98 ab       	std	Y+48, r25	; 0x30
    2570:	a9 ab       	std	Y+49, r26	; 0x31
    2572:	ba ab       	std	Y+50, r27	; 0x32

00002574 <.LM208>:
    2574:	2b ea       	ldi	r18, 0xAB	; 171
    2576:	3a ea       	ldi	r19, 0xAA	; 170
    2578:	4a ea       	ldi	r20, 0xAA	; 170
    257a:	5e e3       	ldi	r21, 0x3E	; 62
    257c:	6f a5       	ldd	r22, Y+47	; 0x2f
    257e:	78 a9       	ldd	r23, Y+48	; 0x30
    2580:	89 a9       	ldd	r24, Y+49	; 0x31
    2582:	9a a9       	ldd	r25, Y+50	; 0x32
    2584:	0e 94 ba 19 	call	0x3374	; 0x3374 <__mulsf3>
    2588:	cc 55       	subi	r28, 0x5C	; 92
    258a:	df 4f       	sbci	r29, 0xFF	; 255
    258c:	68 83       	st	Y, r22
    258e:	79 83       	std	Y+1, r23	; 0x01
    2590:	8a 83       	std	Y+2, r24	; 0x02
    2592:	9b 83       	std	Y+3, r25	; 0x03
    2594:	c4 5a       	subi	r28, 0xA4	; 164
    2596:	d0 40       	sbci	r29, 0x00	; 0
    2598:	cc 55       	subi	r28, 0x5C	; 92
    259a:	df 4f       	sbci	r29, 0xFF	; 255
    259c:	88 81       	ld	r24, Y
    259e:	99 81       	ldd	r25, Y+1	; 0x01
    25a0:	aa 81       	ldd	r26, Y+2	; 0x02
    25a2:	bb 81       	ldd	r27, Y+3	; 0x03
    25a4:	c4 5a       	subi	r28, 0xA4	; 164
    25a6:	d0 40       	sbci	r29, 0x00	; 0
    25a8:	8b ab       	std	Y+51, r24	; 0x33
    25aa:	9c ab       	std	Y+52, r25	; 0x34
    25ac:	ad ab       	std	Y+53, r26	; 0x35
    25ae:	be ab       	std	Y+54, r27	; 0x36

000025b0 <.LM209>:
    25b0:	20 e0       	ldi	r18, 0x00	; 0
    25b2:	30 e0       	ldi	r19, 0x00	; 0
    25b4:	40 e8       	ldi	r20, 0x80	; 128
    25b6:	5e e3       	ldi	r21, 0x3E	; 62
    25b8:	6f a5       	ldd	r22, Y+47	; 0x2f
    25ba:	78 a9       	ldd	r23, Y+48	; 0x30
    25bc:	89 a9       	ldd	r24, Y+49	; 0x31
    25be:	9a a9       	ldd	r25, Y+50	; 0x32
    25c0:	0e 94 ba 19 	call	0x3374	; 0x3374 <__mulsf3>
    25c4:	c8 55       	subi	r28, 0x58	; 88
    25c6:	df 4f       	sbci	r29, 0xFF	; 255
    25c8:	68 83       	st	Y, r22
    25ca:	79 83       	std	Y+1, r23	; 0x01
    25cc:	8a 83       	std	Y+2, r24	; 0x02
    25ce:	9b 83       	std	Y+3, r25	; 0x03
    25d0:	c8 5a       	subi	r28, 0xA8	; 168
    25d2:	d0 40       	sbci	r29, 0x00	; 0
    25d4:	c8 55       	subi	r28, 0x58	; 88
    25d6:	df 4f       	sbci	r29, 0xFF	; 255
    25d8:	88 81       	ld	r24, Y
    25da:	99 81       	ldd	r25, Y+1	; 0x01
    25dc:	aa 81       	ldd	r26, Y+2	; 0x02
    25de:	bb 81       	ldd	r27, Y+3	; 0x03
    25e0:	c8 5a       	subi	r28, 0xA8	; 168
    25e2:	d0 40       	sbci	r29, 0x00	; 0
    25e4:	8f ab       	std	Y+55, r24	; 0x37
    25e6:	98 af       	std	Y+56, r25	; 0x38
    25e8:	a9 af       	std	Y+57, r26	; 0x39
    25ea:	ba af       	std	Y+58, r27	; 0x3a

000025ec <.LM210>:
    25ec:	20 e0       	ldi	r18, 0x00	; 0
    25ee:	30 e0       	ldi	r19, 0x00	; 0
    25f0:	40 e8       	ldi	r20, 0x80	; 128
    25f2:	5f e3       	ldi	r21, 0x3F	; 63
    25f4:	6b a9       	ldd	r22, Y+51	; 0x33
    25f6:	7c a9       	ldd	r23, Y+52	; 0x34
    25f8:	8d a9       	ldd	r24, Y+53	; 0x35
    25fa:	9e a9       	ldd	r25, Y+54	; 0x36
    25fc:	0e 94 9a 18 	call	0x3134	; 0x3134 <__cmpsf2>
    2600:	88 23       	and	r24, r24
    2602:	1c f4       	brge	.+6      	; 0x260a <.L196>

00002604 <.LM211>:
    2604:	81 e0       	ldi	r24, 0x01	; 1
    2606:	8b af       	std	Y+59, r24	; 0x3b
    2608:	78 c1       	rjmp	.+752    	; 0x28fa <.L136>

0000260a <.L196>:
    260a:	20 e0       	ldi	r18, 0x00	; 0
    260c:	3f ef       	ldi	r19, 0xFF	; 255
    260e:	4f e7       	ldi	r20, 0x7F	; 127
    2610:	57 e4       	ldi	r21, 0x47	; 71
    2612:	6f a9       	ldd	r22, Y+55	; 0x37
    2614:	78 ad       	ldd	r23, Y+56	; 0x38
    2616:	89 ad       	ldd	r24, Y+57	; 0x39
    2618:	9a ad       	ldd	r25, Y+58	; 0x3a
    261a:	0e 94 b5 19 	call	0x336a	; 0x336a <__gesf2>
    261e:	88 23       	and	r24, r24
    2620:	09 f0       	breq	.+2      	; 0x2624 <L0^A>

00002622 <L0^A>:
    2622:	0c f4       	brge	.+2      	; 0x2626 <.LM213>

00002624 <L0^A>:
    2624:	12 c1       	rjmp	.+548    	; 0x284a <.L197>

00002626 <.LM213>:
    2626:	20 e0       	ldi	r18, 0x00	; 0
    2628:	30 e0       	ldi	r19, 0x00	; 0
    262a:	4a e7       	ldi	r20, 0x7A	; 122
    262c:	54 e4       	ldi	r21, 0x44	; 68
    262e:	6f a5       	ldd	r22, Y+47	; 0x2f
    2630:	78 a9       	ldd	r23, Y+48	; 0x30
    2632:	89 a9       	ldd	r24, Y+49	; 0x31
    2634:	9a a9       	ldd	r25, Y+50	; 0x32
    2636:	0e 94 9f 18 	call	0x313e	; 0x313e <__divsf3>
    263a:	c4 55       	subi	r28, 0x54	; 84
    263c:	df 4f       	sbci	r29, 0xFF	; 255
    263e:	68 83       	st	Y, r22
    2640:	79 83       	std	Y+1, r23	; 0x01
    2642:	8a 83       	std	Y+2, r24	; 0x02
    2644:	9b 83       	std	Y+3, r25	; 0x03
    2646:	cc 5a       	subi	r28, 0xAC	; 172
    2648:	d0 40       	sbci	r29, 0x00	; 0
    264a:	c4 55       	subi	r28, 0x54	; 84
    264c:	df 4f       	sbci	r29, 0xFF	; 255
    264e:	88 81       	ld	r24, Y
    2650:	99 81       	ldd	r25, Y+1	; 0x01
    2652:	aa 81       	ldd	r26, Y+2	; 0x02
    2654:	bb 81       	ldd	r27, Y+3	; 0x03
    2656:	cc 5a       	subi	r28, 0xAC	; 172
    2658:	d0 40       	sbci	r29, 0x00	; 0
    265a:	8c af       	std	Y+60, r24	; 0x3c
    265c:	9d af       	std	Y+61, r25	; 0x3d
    265e:	ae af       	std	Y+62, r26	; 0x3e
    2660:	bf af       	std	Y+63, r27	; 0x3f

00002662 <.LM214>:
    2662:	8e 01       	movw	r16, r28
    2664:	00 5c       	subi	r16, 0xC0	; 192
    2666:	1f 4f       	sbci	r17, 0xFF	; 255
    2668:	20 e0       	ldi	r18, 0x00	; 0
    266a:	30 e0       	ldi	r19, 0x00	; 0
    266c:	4a e7       	ldi	r20, 0x7A	; 122
    266e:	53 e4       	ldi	r21, 0x43	; 67
    2670:	6c ad       	ldd	r22, Y+60	; 0x3c
    2672:	7d ad       	ldd	r23, Y+61	; 0x3d
    2674:	8e ad       	ldd	r24, Y+62	; 0x3e
    2676:	9f ad       	ldd	r25, Y+63	; 0x3f
    2678:	0e 94 ba 19 	call	0x3374	; 0x3374 <__mulsf3>
    267c:	c0 55       	subi	r28, 0x50	; 80
    267e:	df 4f       	sbci	r29, 0xFF	; 255
    2680:	68 83       	st	Y, r22
    2682:	79 83       	std	Y+1, r23	; 0x01
    2684:	8a 83       	std	Y+2, r24	; 0x02
    2686:	9b 83       	std	Y+3, r25	; 0x03
    2688:	c0 5b       	subi	r28, 0xB0	; 176
    268a:	d0 40       	sbci	r29, 0x00	; 0
    268c:	c0 55       	subi	r28, 0x50	; 80
    268e:	df 4f       	sbci	r29, 0xFF	; 255
    2690:	88 81       	ld	r24, Y
    2692:	99 81       	ldd	r25, Y+1	; 0x01
    2694:	aa 81       	ldd	r26, Y+2	; 0x02
    2696:	bb 81       	ldd	r27, Y+3	; 0x03
    2698:	c0 5b       	subi	r28, 0xB0	; 176
    269a:	d0 40       	sbci	r29, 0x00	; 0
    269c:	f8 01       	movw	r30, r16
    269e:	80 83       	st	Z, r24
    26a0:	91 83       	std	Z+1, r25	; 0x01
    26a2:	a2 83       	std	Z+2, r26	; 0x02
    26a4:	b3 83       	std	Z+3, r27	; 0x03

000026a6 <.LM215>:
    26a6:	ce 01       	movw	r24, r28
    26a8:	80 5c       	subi	r24, 0xC0	; 192
    26aa:	9f 4f       	sbci	r25, 0xFF	; 255
    26ac:	20 e0       	ldi	r18, 0x00	; 0
    26ae:	30 e0       	ldi	r19, 0x00	; 0
    26b0:	40 e8       	ldi	r20, 0x80	; 128
    26b2:	5f e3       	ldi	r21, 0x3F	; 63
    26b4:	dc 01       	movw	r26, r24
    26b6:	6d 91       	ld	r22, X+
    26b8:	7d 91       	ld	r23, X+
    26ba:	8d 91       	ld	r24, X+
    26bc:	9c 91       	ld	r25, X
    26be:	0e 94 9a 18 	call	0x3134	; 0x3134 <__cmpsf2>
    26c2:	88 23       	and	r24, r24
    26c4:	4c f4       	brge	.+18     	; 0x26d8 <.L198>

000026c6 <.LM216>:
    26c6:	ce 01       	movw	r24, r28
    26c8:	8c 5b       	subi	r24, 0xBC	; 188
    26ca:	9f 4f       	sbci	r25, 0xFF	; 255
    26cc:	21 e0       	ldi	r18, 0x01	; 1
    26ce:	30 e0       	ldi	r19, 0x00	; 0
    26d0:	fc 01       	movw	r30, r24
    26d2:	31 83       	std	Z+1, r19	; 0x01
    26d4:	20 83       	st	Z, r18
    26d6:	9d c0       	rjmp	.+314    	; 0x2812 <.L141>

000026d8 <.L198>:
    26d8:	ce 01       	movw	r24, r28
    26da:	80 5c       	subi	r24, 0xC0	; 192
    26dc:	9f 4f       	sbci	r25, 0xFF	; 255
    26de:	20 e0       	ldi	r18, 0x00	; 0
    26e0:	3f ef       	ldi	r19, 0xFF	; 255
    26e2:	4f e7       	ldi	r20, 0x7F	; 127
    26e4:	57 e4       	ldi	r21, 0x47	; 71
    26e6:	dc 01       	movw	r26, r24
    26e8:	6d 91       	ld	r22, X+
    26ea:	7d 91       	ld	r23, X+
    26ec:	8d 91       	ld	r24, X+
    26ee:	9c 91       	ld	r25, X
    26f0:	0e 94 b5 19 	call	0x336a	; 0x336a <__gesf2>
    26f4:	88 23       	and	r24, r24
    26f6:	09 f0       	breq	.+2      	; 0x26fa <L0^A>

000026f8 <L0^A>:
    26f8:	0c f4       	brge	.+2      	; 0x26fc <.LM218>

000026fa <L0^A>:
    26fa:	6d c0       	rjmp	.+218    	; 0x27d6 <.L199>

000026fc <.LM218>:
    26fc:	20 e0       	ldi	r18, 0x00	; 0
    26fe:	30 e0       	ldi	r19, 0x00	; 0
    2700:	40 e2       	ldi	r20, 0x20	; 32
    2702:	51 e4       	ldi	r21, 0x41	; 65
    2704:	6c ad       	ldd	r22, Y+60	; 0x3c
    2706:	7d ad       	ldd	r23, Y+61	; 0x3d
    2708:	8e ad       	ldd	r24, Y+62	; 0x3e
    270a:	9f ad       	ldd	r25, Y+63	; 0x3f
    270c:	0e 94 ba 19 	call	0x3374	; 0x3374 <__mulsf3>
    2710:	cc 54       	subi	r28, 0x4C	; 76
    2712:	df 4f       	sbci	r29, 0xFF	; 255
    2714:	68 83       	st	Y, r22
    2716:	79 83       	std	Y+1, r23	; 0x01
    2718:	8a 83       	std	Y+2, r24	; 0x02
    271a:	9b 83       	std	Y+3, r25	; 0x03
    271c:	c4 5b       	subi	r28, 0xB4	; 180
    271e:	d0 40       	sbci	r29, 0x00	; 0
    2720:	cc 54       	subi	r28, 0x4C	; 76
    2722:	df 4f       	sbci	r29, 0xFF	; 255
    2724:	88 81       	ld	r24, Y
    2726:	99 81       	ldd	r25, Y+1	; 0x01
    2728:	aa 81       	ldd	r26, Y+2	; 0x02
    272a:	bb 81       	ldd	r27, Y+3	; 0x03
    272c:	c4 5b       	subi	r28, 0xB4	; 180
    272e:	d0 40       	sbci	r29, 0x00	; 0
    2730:	ec 96       	adiw	r28, 0x3c	; 60
    2732:	8c af       	std	Y+60, r24	; 0x3c
    2734:	9d af       	std	Y+61, r25	; 0x3d
    2736:	ae af       	std	Y+62, r26	; 0x3e
    2738:	bf af       	std	Y+63, r27	; 0x3f
    273a:	ec 97       	sbiw	r28, 0x3c	; 60

0000273c <.LM219>:
    273c:	8e 01       	movw	r16, r28
    273e:	0c 5b       	subi	r16, 0xBC	; 188
    2740:	1f 4f       	sbci	r17, 0xFF	; 255
    2742:	ec 96       	adiw	r28, 0x3c	; 60
    2744:	6c ad       	ldd	r22, Y+60	; 0x3c
    2746:	7d ad       	ldd	r23, Y+61	; 0x3d
    2748:	8e ad       	ldd	r24, Y+62	; 0x3e
    274a:	9f ad       	ldd	r25, Y+63	; 0x3f
    274c:	ec 97       	sbiw	r28, 0x3c	; 60
    274e:	0e 94 11 19 	call	0x3222	; 0x3222 <__fixunssfsi>
    2752:	c8 54       	subi	r28, 0x48	; 72
    2754:	df 4f       	sbci	r29, 0xFF	; 255
    2756:	68 83       	st	Y, r22
    2758:	79 83       	std	Y+1, r23	; 0x01
    275a:	8a 83       	std	Y+2, r24	; 0x02
    275c:	9b 83       	std	Y+3, r25	; 0x03
    275e:	c8 5b       	subi	r28, 0xB8	; 184
    2760:	d0 40       	sbci	r29, 0x00	; 0
    2762:	c8 54       	subi	r28, 0x48	; 72
    2764:	df 4f       	sbci	r29, 0xFF	; 255
    2766:	e8 81       	ld	r30, Y
    2768:	f9 81       	ldd	r31, Y+1	; 0x01
    276a:	c8 5b       	subi	r28, 0xB8	; 184
    276c:	d0 40       	sbci	r29, 0x00	; 0
    276e:	d8 01       	movw	r26, r16
    2770:	11 96       	adiw	r26, 0x01	; 1
    2772:	fc 93       	st	X, r31
    2774:	ee 93       	st	-X, r30

00002776 <.LM220>:
    2776:	26 c0       	rjmp	.+76     	; 0x27c4 <.L144>

00002778 <.L145>:
    2778:	ce 01       	movw	r24, r28
    277a:	8a 5b       	subi	r24, 0xBA	; 186
    277c:	9f 4f       	sbci	r25, 0xFF	; 255
    277e:	29 e1       	ldi	r18, 0x19	; 25
    2780:	30 e0       	ldi	r19, 0x00	; 0
    2782:	dc 01       	movw	r26, r24
    2784:	2d 93       	st	X+, r18
    2786:	3c 93       	st	X, r19

00002788 <.LM221>:
    2788:	ce 01       	movw	r24, r28
    278a:	8a 5b       	subi	r24, 0xBA	; 186
    278c:	9f 4f       	sbci	r25, 0xFF	; 255
    278e:	fc 01       	movw	r30, r24
    2790:	80 81       	ld	r24, Z
    2792:	91 81       	ldd	r25, Z+1	; 0x01

00002794 <.L1^B23>:
    2794:	01 97       	sbiw	r24, 0x01	; 1
    2796:	f1 f7       	brne	.-4      	; 0x2794 <.L1^B23>
    2798:	9e 01       	movw	r18, r28
    279a:	2a 5b       	subi	r18, 0xBA	; 186
    279c:	3f 4f       	sbci	r19, 0xFF	; 255
    279e:	d9 01       	movw	r26, r18
    27a0:	8d 93       	st	X+, r24
    27a2:	9c 93       	st	X, r25

000027a4 <.LM222>:
	...

000027a6 <.LM223>:
    27a6:	ce 01       	movw	r24, r28
    27a8:	8c 5b       	subi	r24, 0xBC	; 188
    27aa:	9f 4f       	sbci	r25, 0xFF	; 255
    27ac:	9e 01       	movw	r18, r28
    27ae:	2c 5b       	subi	r18, 0xBC	; 188
    27b0:	3f 4f       	sbci	r19, 0xFF	; 255
    27b2:	f9 01       	movw	r30, r18
    27b4:	20 81       	ld	r18, Z
    27b6:	31 81       	ldd	r19, Z+1	; 0x01
    27b8:	21 50       	subi	r18, 0x01	; 1
    27ba:	31 09       	sbc	r19, r1
    27bc:	dc 01       	movw	r26, r24
    27be:	11 96       	adiw	r26, 0x01	; 1
    27c0:	3c 93       	st	X, r19
    27c2:	2e 93       	st	-X, r18

000027c4 <.L144>:
    27c4:	ce 01       	movw	r24, r28
    27c6:	8c 5b       	subi	r24, 0xBC	; 188
    27c8:	9f 4f       	sbci	r25, 0xFF	; 255
    27ca:	fc 01       	movw	r30, r24
    27cc:	80 81       	ld	r24, Z
    27ce:	91 81       	ldd	r25, Z+1	; 0x01
    27d0:	00 97       	sbiw	r24, 0x00	; 0
    27d2:	91 f6       	brne	.-92     	; 0x2778 <.L145>

000027d4 <.LM225>:
    27d4:	92 c0       	rjmp	.+292    	; 0x28fa <.L136>

000027d6 <.L199>:
    27d6:	8e 01       	movw	r16, r28
    27d8:	0c 5b       	subi	r16, 0xBC	; 188
    27da:	1f 4f       	sbci	r17, 0xFF	; 255
    27dc:	ce 01       	movw	r24, r28
    27de:	80 5c       	subi	r24, 0xC0	; 192
    27e0:	9f 4f       	sbci	r25, 0xFF	; 255
    27e2:	dc 01       	movw	r26, r24
    27e4:	6d 91       	ld	r22, X+
    27e6:	7d 91       	ld	r23, X+
    27e8:	8d 91       	ld	r24, X+
    27ea:	9c 91       	ld	r25, X
    27ec:	0e 94 11 19 	call	0x3222	; 0x3222 <__fixunssfsi>
    27f0:	c4 54       	subi	r28, 0x44	; 68
    27f2:	df 4f       	sbci	r29, 0xFF	; 255
    27f4:	68 83       	st	Y, r22
    27f6:	79 83       	std	Y+1, r23	; 0x01
    27f8:	8a 83       	std	Y+2, r24	; 0x02
    27fa:	9b 83       	std	Y+3, r25	; 0x03
    27fc:	cc 5b       	subi	r28, 0xBC	; 188
    27fe:	d0 40       	sbci	r29, 0x00	; 0
    2800:	c4 54       	subi	r28, 0x44	; 68
    2802:	df 4f       	sbci	r29, 0xFF	; 255
    2804:	88 81       	ld	r24, Y
    2806:	99 81       	ldd	r25, Y+1	; 0x01
    2808:	cc 5b       	subi	r28, 0xBC	; 188
    280a:	d0 40       	sbci	r29, 0x00	; 0
    280c:	f8 01       	movw	r30, r16
    280e:	91 83       	std	Z+1, r25	; 0x01
    2810:	80 83       	st	Z, r24

00002812 <.L141>:
    2812:	ce 01       	movw	r24, r28
    2814:	88 5b       	subi	r24, 0xB8	; 184
    2816:	9f 4f       	sbci	r25, 0xFF	; 255
    2818:	9e 01       	movw	r18, r28
    281a:	2c 5b       	subi	r18, 0xBC	; 188
    281c:	3f 4f       	sbci	r19, 0xFF	; 255
    281e:	d9 01       	movw	r26, r18
    2820:	2d 91       	ld	r18, X+
    2822:	3c 91       	ld	r19, X
    2824:	fc 01       	movw	r30, r24
    2826:	31 83       	std	Z+1, r19	; 0x01
    2828:	20 83       	st	Z, r18

0000282a <.LM227>:
    282a:	ce 01       	movw	r24, r28
    282c:	88 5b       	subi	r24, 0xB8	; 184
    282e:	9f 4f       	sbci	r25, 0xFF	; 255
    2830:	dc 01       	movw	r26, r24
    2832:	8d 91       	ld	r24, X+
    2834:	9c 91       	ld	r25, X
    2836:	11 97       	sbiw	r26, 0x01	; 1

00002838 <.L1^B24>:
    2838:	01 97       	sbiw	r24, 0x01	; 1
    283a:	f1 f7       	brne	.-4      	; 0x2838 <.L1^B24>
    283c:	9e 01       	movw	r18, r28
    283e:	28 5b       	subi	r18, 0xB8	; 184
    2840:	3f 4f       	sbci	r19, 0xFF	; 255
    2842:	f9 01       	movw	r30, r18
    2844:	91 83       	std	Z+1, r25	; 0x01
    2846:	80 83       	st	Z, r24

00002848 <.LM228>:
    2848:	58 c0       	rjmp	.+176    	; 0x28fa <.L136>

0000284a <.L197>:
    284a:	20 e0       	ldi	r18, 0x00	; 0
    284c:	30 e0       	ldi	r19, 0x00	; 0
    284e:	4f e7       	ldi	r20, 0x7F	; 127
    2850:	53 e4       	ldi	r21, 0x43	; 67
    2852:	6b a9       	ldd	r22, Y+51	; 0x33
    2854:	7c a9       	ldd	r23, Y+52	; 0x34
    2856:	8d a9       	ldd	r24, Y+53	; 0x35
    2858:	9e a9       	ldd	r25, Y+54	; 0x36
    285a:	0e 94 b5 19 	call	0x336a	; 0x336a <__gesf2>
    285e:	88 23       	and	r24, r24
    2860:	c1 f1       	breq	.+112    	; 0x28d2 <.L200>
    2862:	bc f1       	brlt	.+110    	; 0x28d2 <.L200>

00002864 <.LM230>:
    2864:	8e 01       	movw	r16, r28
    2866:	06 5b       	subi	r16, 0xB6	; 182
    2868:	1f 4f       	sbci	r17, 0xFF	; 255
    286a:	6f a9       	ldd	r22, Y+55	; 0x37
    286c:	78 ad       	ldd	r23, Y+56	; 0x38
    286e:	89 ad       	ldd	r24, Y+57	; 0x39
    2870:	9a ad       	ldd	r25, Y+58	; 0x3a
    2872:	0e 94 11 19 	call	0x3222	; 0x3222 <__fixunssfsi>
    2876:	c0 54       	subi	r28, 0x40	; 64
    2878:	df 4f       	sbci	r29, 0xFF	; 255
    287a:	68 83       	st	Y, r22
    287c:	79 83       	std	Y+1, r23	; 0x01
    287e:	8a 83       	std	Y+2, r24	; 0x02
    2880:	9b 83       	std	Y+3, r25	; 0x03
    2882:	c0 5c       	subi	r28, 0xC0	; 192
    2884:	d0 40       	sbci	r29, 0x00	; 0
    2886:	c0 54       	subi	r28, 0x40	; 64
    2888:	df 4f       	sbci	r29, 0xFF	; 255
    288a:	e8 81       	ld	r30, Y
    288c:	f9 81       	ldd	r31, Y+1	; 0x01
    288e:	c0 5c       	subi	r28, 0xC0	; 192
    2890:	d0 40       	sbci	r29, 0x00	; 0
    2892:	d8 01       	movw	r26, r16
    2894:	ed 93       	st	X+, r30
    2896:	fc 93       	st	X, r31
    2898:	ce 01       	movw	r24, r28
    289a:	84 5b       	subi	r24, 0xB4	; 180
    289c:	9f 4f       	sbci	r25, 0xFF	; 255
    289e:	9e 01       	movw	r18, r28
    28a0:	26 5b       	subi	r18, 0xB6	; 182
    28a2:	3f 4f       	sbci	r19, 0xFF	; 255
    28a4:	d9 01       	movw	r26, r18
    28a6:	2d 91       	ld	r18, X+
    28a8:	3c 91       	ld	r19, X
    28aa:	fc 01       	movw	r30, r24
    28ac:	31 83       	std	Z+1, r19	; 0x01
    28ae:	20 83       	st	Z, r18

000028b0 <.LM231>:
    28b0:	ce 01       	movw	r24, r28
    28b2:	84 5b       	subi	r24, 0xB4	; 180
    28b4:	9f 4f       	sbci	r25, 0xFF	; 255
    28b6:	dc 01       	movw	r26, r24
    28b8:	8d 91       	ld	r24, X+
    28ba:	9c 91       	ld	r25, X
    28bc:	11 97       	sbiw	r26, 0x01	; 1

000028be <.L1^B25>:
    28be:	01 97       	sbiw	r24, 0x01	; 1
    28c0:	f1 f7       	brne	.-4      	; 0x28be <.L1^B25>
    28c2:	9e 01       	movw	r18, r28
    28c4:	24 5b       	subi	r18, 0xB4	; 180
    28c6:	3f 4f       	sbci	r19, 0xFF	; 255
    28c8:	f9 01       	movw	r30, r18
    28ca:	91 83       	std	Z+1, r25	; 0x01
    28cc:	80 83       	st	Z, r24

000028ce <.LM232>:
	...

000028d0 <.LM233>:
    28d0:	28 c0       	rjmp	.+80     	; 0x2922 <.L149>

000028d2 <.L200>:
    28d2:	6b a9       	ldd	r22, Y+51	; 0x33
    28d4:	7c a9       	ldd	r23, Y+52	; 0x34
    28d6:	8d a9       	ldd	r24, Y+53	; 0x35
    28d8:	9e a9       	ldd	r25, Y+54	; 0x36
    28da:	0e 94 11 19 	call	0x3222	; 0x3222 <__fixunssfsi>
    28de:	cc 53       	subi	r28, 0x3C	; 60
    28e0:	df 4f       	sbci	r29, 0xFF	; 255
    28e2:	68 83       	st	Y, r22
    28e4:	79 83       	std	Y+1, r23	; 0x01
    28e6:	8a 83       	std	Y+2, r24	; 0x02
    28e8:	9b 83       	std	Y+3, r25	; 0x03
    28ea:	c4 5c       	subi	r28, 0xC4	; 196
    28ec:	d0 40       	sbci	r29, 0x00	; 0
    28ee:	cc 53       	subi	r28, 0x3C	; 60
    28f0:	df 4f       	sbci	r29, 0xFF	; 255
    28f2:	f8 81       	ld	r31, Y
    28f4:	c4 5c       	subi	r28, 0xC4	; 196
    28f6:	d0 40       	sbci	r29, 0x00	; 0
    28f8:	fb af       	std	Y+59, r31	; 0x3b

000028fa <.L136>:
    28fa:	ce 01       	movw	r24, r28
    28fc:	82 5b       	subi	r24, 0xB2	; 178
    28fe:	9f 4f       	sbci	r25, 0xFF	; 255
    2900:	2b ad       	ldd	r18, Y+59	; 0x3b
    2902:	dc 01       	movw	r26, r24
    2904:	2c 93       	st	X, r18

00002906 <.LM235>:
    2906:	ce 01       	movw	r24, r28
    2908:	82 5b       	subi	r24, 0xB2	; 178
    290a:	9f 4f       	sbci	r25, 0xFF	; 255
    290c:	fc 01       	movw	r30, r24
    290e:	80 81       	ld	r24, Z
    2910:	28 2f       	mov	r18, r24

00002912 <.L1^B26>:
    2912:	2a 95       	dec	r18
    2914:	f1 f7       	brne	.-4      	; 0x2912 <.L1^B26>
    2916:	ce 01       	movw	r24, r28
    2918:	82 5b       	subi	r24, 0xB2	; 178
    291a:	9f 4f       	sbci	r25, 0xFF	; 255
    291c:	dc 01       	movw	r26, r24
    291e:	2c 93       	st	X, r18

00002920 <.LM236>:
	...

00002922 <.L149>:
    2922:	ce 01       	movw	r24, r28
    2924:	81 59       	subi	r24, 0x91	; 145
    2926:	9f 4f       	sbci	r25, 0xFF	; 255
    2928:	fc 01       	movw	r30, r24
    292a:	80 81       	ld	r24, Z
    292c:	81 70       	andi	r24, 0x01	; 1
    292e:	48 2f       	mov	r20, r24
    2930:	64 e0       	ldi	r22, 0x04	; 4
    2932:	82 e0       	ldi	r24, 0x02	; 2
    2934:	0e 94 4e 05 	call	0xa9c	; 0xa9c <GPIO_SetPinValue>

00002938 <.LM238>:
    2938:	ce 01       	movw	r24, r28
    293a:	81 59       	subi	r24, 0x91	; 145
    293c:	9f 4f       	sbci	r25, 0xFF	; 255
    293e:	dc 01       	movw	r26, r24
    2940:	8c 91       	ld	r24, X
    2942:	86 95       	lsr	r24

00002944 <.LM239>:
    2944:	81 70       	andi	r24, 0x01	; 1
    2946:	48 2f       	mov	r20, r24
    2948:	65 e0       	ldi	r22, 0x05	; 5
    294a:	82 e0       	ldi	r24, 0x02	; 2
    294c:	0e 94 4e 05 	call	0xa9c	; 0xa9c <GPIO_SetPinValue>

00002950 <.LM240>:
    2950:	ce 01       	movw	r24, r28
    2952:	81 59       	subi	r24, 0x91	; 145
    2954:	9f 4f       	sbci	r25, 0xFF	; 255
    2956:	fc 01       	movw	r30, r24
    2958:	80 81       	ld	r24, Z
    295a:	86 95       	lsr	r24
    295c:	86 95       	lsr	r24

0000295e <.LM241>:
    295e:	81 70       	andi	r24, 0x01	; 1
    2960:	48 2f       	mov	r20, r24
    2962:	66 e0       	ldi	r22, 0x06	; 6
    2964:	82 e0       	ldi	r24, 0x02	; 2
    2966:	0e 94 4e 05 	call	0xa9c	; 0xa9c <GPIO_SetPinValue>

0000296a <.LM242>:
    296a:	ce 01       	movw	r24, r28
    296c:	81 59       	subi	r24, 0x91	; 145
    296e:	9f 4f       	sbci	r25, 0xFF	; 255
    2970:	dc 01       	movw	r26, r24
    2972:	8c 91       	ld	r24, X
    2974:	86 95       	lsr	r24
    2976:	86 95       	lsr	r24
    2978:	86 95       	lsr	r24

0000297a <.LM243>:
    297a:	81 70       	andi	r24, 0x01	; 1
    297c:	48 2f       	mov	r20, r24
    297e:	67 e0       	ldi	r22, 0x07	; 7
    2980:	82 e0       	ldi	r24, 0x02	; 2
    2982:	0e 94 4e 05 	call	0xa9c	; 0xa9c <GPIO_SetPinValue>

00002986 <.LM244>:
    2986:	41 e0       	ldi	r20, 0x01	; 1
    2988:	62 e0       	ldi	r22, 0x02	; 2
    298a:	82 e0       	ldi	r24, 0x02	; 2
    298c:	0e 94 4e 05 	call	0xa9c	; 0xa9c <GPIO_SetPinValue>
    2990:	80 e0       	ldi	r24, 0x00	; 0
    2992:	90 e0       	ldi	r25, 0x00	; 0
    2994:	a0 e8       	ldi	r26, 0x80	; 128
    2996:	bf e3       	ldi	r27, 0x3F	; 63
    2998:	8f 87       	std	Y+15, r24	; 0x0f
    299a:	98 8b       	std	Y+16, r25	; 0x10
    299c:	a9 8b       	std	Y+17, r26	; 0x11
    299e:	ba 8b       	std	Y+18, r27	; 0x12

000029a0 <.LM245>:
    29a0:	2b ea       	ldi	r18, 0xAB	; 171
    29a2:	3a ea       	ldi	r19, 0xAA	; 170
    29a4:	4a ea       	ldi	r20, 0xAA	; 170
    29a6:	5e e3       	ldi	r21, 0x3E	; 62
    29a8:	6f 85       	ldd	r22, Y+15	; 0x0f
    29aa:	78 89       	ldd	r23, Y+16	; 0x10
    29ac:	89 89       	ldd	r24, Y+17	; 0x11
    29ae:	9a 89       	ldd	r25, Y+18	; 0x12
    29b0:	0e 94 ba 19 	call	0x3374	; 0x3374 <__mulsf3>
    29b4:	c8 53       	subi	r28, 0x38	; 56
    29b6:	df 4f       	sbci	r29, 0xFF	; 255
    29b8:	68 83       	st	Y, r22
    29ba:	79 83       	std	Y+1, r23	; 0x01
    29bc:	8a 83       	std	Y+2, r24	; 0x02
    29be:	9b 83       	std	Y+3, r25	; 0x03
    29c0:	c8 5c       	subi	r28, 0xC8	; 200
    29c2:	d0 40       	sbci	r29, 0x00	; 0
    29c4:	c8 53       	subi	r28, 0x38	; 56
    29c6:	df 4f       	sbci	r29, 0xFF	; 255
    29c8:	88 81       	ld	r24, Y
    29ca:	99 81       	ldd	r25, Y+1	; 0x01
    29cc:	aa 81       	ldd	r26, Y+2	; 0x02
    29ce:	bb 81       	ldd	r27, Y+3	; 0x03
    29d0:	c8 5c       	subi	r28, 0xC8	; 200
    29d2:	d0 40       	sbci	r29, 0x00	; 0
    29d4:	8b 8b       	std	Y+19, r24	; 0x13
    29d6:	9c 8b       	std	Y+20, r25	; 0x14
    29d8:	ad 8b       	std	Y+21, r26	; 0x15
    29da:	be 8b       	std	Y+22, r27	; 0x16

000029dc <.LM246>:
    29dc:	20 e0       	ldi	r18, 0x00	; 0
    29de:	30 e0       	ldi	r19, 0x00	; 0
    29e0:	40 e8       	ldi	r20, 0x80	; 128
    29e2:	5e e3       	ldi	r21, 0x3E	; 62
    29e4:	6f 85       	ldd	r22, Y+15	; 0x0f
    29e6:	78 89       	ldd	r23, Y+16	; 0x10
    29e8:	89 89       	ldd	r24, Y+17	; 0x11
    29ea:	9a 89       	ldd	r25, Y+18	; 0x12
    29ec:	0e 94 ba 19 	call	0x3374	; 0x3374 <__mulsf3>
    29f0:	c4 53       	subi	r28, 0x34	; 52
    29f2:	df 4f       	sbci	r29, 0xFF	; 255
    29f4:	68 83       	st	Y, r22
    29f6:	79 83       	std	Y+1, r23	; 0x01
    29f8:	8a 83       	std	Y+2, r24	; 0x02
    29fa:	9b 83       	std	Y+3, r25	; 0x03
    29fc:	cc 5c       	subi	r28, 0xCC	; 204
    29fe:	d0 40       	sbci	r29, 0x00	; 0
    2a00:	c4 53       	subi	r28, 0x34	; 52
    2a02:	df 4f       	sbci	r29, 0xFF	; 255
    2a04:	88 81       	ld	r24, Y
    2a06:	99 81       	ldd	r25, Y+1	; 0x01
    2a08:	aa 81       	ldd	r26, Y+2	; 0x02
    2a0a:	bb 81       	ldd	r27, Y+3	; 0x03
    2a0c:	cc 5c       	subi	r28, 0xCC	; 204
    2a0e:	d0 40       	sbci	r29, 0x00	; 0
    2a10:	8f 8b       	std	Y+23, r24	; 0x17
    2a12:	98 8f       	std	Y+24, r25	; 0x18
    2a14:	a9 8f       	std	Y+25, r26	; 0x19
    2a16:	ba 8f       	std	Y+26, r27	; 0x1a

00002a18 <.LM247>:
    2a18:	20 e0       	ldi	r18, 0x00	; 0
    2a1a:	30 e0       	ldi	r19, 0x00	; 0
    2a1c:	40 e8       	ldi	r20, 0x80	; 128
    2a1e:	5f e3       	ldi	r21, 0x3F	; 63
    2a20:	6b 89       	ldd	r22, Y+19	; 0x13
    2a22:	7c 89       	ldd	r23, Y+20	; 0x14
    2a24:	8d 89       	ldd	r24, Y+21	; 0x15
    2a26:	9e 89       	ldd	r25, Y+22	; 0x16
    2a28:	0e 94 9a 18 	call	0x3134	; 0x3134 <__cmpsf2>
    2a2c:	88 23       	and	r24, r24
    2a2e:	1c f4       	brge	.+6      	; 0x2a36 <.L201>

00002a30 <.LM248>:
    2a30:	81 e0       	ldi	r24, 0x01	; 1
    2a32:	8b 8f       	std	Y+27, r24	; 0x1b
    2a34:	1b c1       	rjmp	.+566    	; 0x2c6c <.L152>

00002a36 <.L201>:
    2a36:	20 e0       	ldi	r18, 0x00	; 0
    2a38:	3f ef       	ldi	r19, 0xFF	; 255
    2a3a:	4f e7       	ldi	r20, 0x7F	; 127
    2a3c:	57 e4       	ldi	r21, 0x47	; 71
    2a3e:	6f 89       	ldd	r22, Y+23	; 0x17
    2a40:	78 8d       	ldd	r23, Y+24	; 0x18
    2a42:	89 8d       	ldd	r24, Y+25	; 0x19
    2a44:	9a 8d       	ldd	r25, Y+26	; 0x1a
    2a46:	0e 94 b5 19 	call	0x336a	; 0x336a <__gesf2>
    2a4a:	88 23       	and	r24, r24
    2a4c:	09 f0       	breq	.+2      	; 0x2a50 <L0^A>

00002a4e <L0^A>:
    2a4e:	0c f4       	brge	.+2      	; 0x2a52 <.LM250>

00002a50 <L0^A>:
    2a50:	ca c0       	rjmp	.+404    	; 0x2be6 <.L202>

00002a52 <.LM250>:
    2a52:	20 e0       	ldi	r18, 0x00	; 0
    2a54:	30 e0       	ldi	r19, 0x00	; 0
    2a56:	4a e7       	ldi	r20, 0x7A	; 122
    2a58:	54 e4       	ldi	r21, 0x44	; 68
    2a5a:	6f 85       	ldd	r22, Y+15	; 0x0f
    2a5c:	78 89       	ldd	r23, Y+16	; 0x10
    2a5e:	89 89       	ldd	r24, Y+17	; 0x11
    2a60:	9a 89       	ldd	r25, Y+18	; 0x12
    2a62:	0e 94 9f 18 	call	0x313e	; 0x313e <__divsf3>
    2a66:	c0 53       	subi	r28, 0x30	; 48
    2a68:	df 4f       	sbci	r29, 0xFF	; 255
    2a6a:	68 83       	st	Y, r22
    2a6c:	79 83       	std	Y+1, r23	; 0x01
    2a6e:	8a 83       	std	Y+2, r24	; 0x02
    2a70:	9b 83       	std	Y+3, r25	; 0x03
    2a72:	c0 5d       	subi	r28, 0xD0	; 208
    2a74:	d0 40       	sbci	r29, 0x00	; 0
    2a76:	c0 53       	subi	r28, 0x30	; 48
    2a78:	df 4f       	sbci	r29, 0xFF	; 255
    2a7a:	88 81       	ld	r24, Y
    2a7c:	99 81       	ldd	r25, Y+1	; 0x01
    2a7e:	aa 81       	ldd	r26, Y+2	; 0x02
    2a80:	bb 81       	ldd	r27, Y+3	; 0x03
    2a82:	c0 5d       	subi	r28, 0xD0	; 208
    2a84:	d0 40       	sbci	r29, 0x00	; 0
    2a86:	8c 8f       	std	Y+28, r24	; 0x1c
    2a88:	9d 8f       	std	Y+29, r25	; 0x1d
    2a8a:	ae 8f       	std	Y+30, r26	; 0x1e
    2a8c:	bf 8f       	std	Y+31, r27	; 0x1f

00002a8e <.LM251>:
    2a8e:	20 e0       	ldi	r18, 0x00	; 0
    2a90:	30 e0       	ldi	r19, 0x00	; 0
    2a92:	4a e7       	ldi	r20, 0x7A	; 122
    2a94:	53 e4       	ldi	r21, 0x43	; 67
    2a96:	6c 8d       	ldd	r22, Y+28	; 0x1c
    2a98:	7d 8d       	ldd	r23, Y+29	; 0x1d
    2a9a:	8e 8d       	ldd	r24, Y+30	; 0x1e
    2a9c:	9f 8d       	ldd	r25, Y+31	; 0x1f
    2a9e:	0e 94 ba 19 	call	0x3374	; 0x3374 <__mulsf3>
    2aa2:	cc 52       	subi	r28, 0x2C	; 44
    2aa4:	df 4f       	sbci	r29, 0xFF	; 255
    2aa6:	68 83       	st	Y, r22
    2aa8:	79 83       	std	Y+1, r23	; 0x01
    2aaa:	8a 83       	std	Y+2, r24	; 0x02
    2aac:	9b 83       	std	Y+3, r25	; 0x03
    2aae:	c4 5d       	subi	r28, 0xD4	; 212
    2ab0:	d0 40       	sbci	r29, 0x00	; 0
    2ab2:	cc 52       	subi	r28, 0x2C	; 44
    2ab4:	df 4f       	sbci	r29, 0xFF	; 255
    2ab6:	88 81       	ld	r24, Y
    2ab8:	99 81       	ldd	r25, Y+1	; 0x01
    2aba:	aa 81       	ldd	r26, Y+2	; 0x02
    2abc:	bb 81       	ldd	r27, Y+3	; 0x03
    2abe:	c4 5d       	subi	r28, 0xD4	; 212
    2ac0:	d0 40       	sbci	r29, 0x00	; 0
    2ac2:	88 a3       	std	Y+32, r24	; 0x20
    2ac4:	99 a3       	std	Y+33, r25	; 0x21
    2ac6:	aa a3       	std	Y+34, r26	; 0x22
    2ac8:	bb a3       	std	Y+35, r27	; 0x23

00002aca <.LM252>:
    2aca:	20 e0       	ldi	r18, 0x00	; 0
    2acc:	30 e0       	ldi	r19, 0x00	; 0
    2ace:	40 e8       	ldi	r20, 0x80	; 128
    2ad0:	5f e3       	ldi	r21, 0x3F	; 63
    2ad2:	68 a1       	ldd	r22, Y+32	; 0x20
    2ad4:	79 a1       	ldd	r23, Y+33	; 0x21
    2ad6:	8a a1       	ldd	r24, Y+34	; 0x22
    2ad8:	9b a1       	ldd	r25, Y+35	; 0x23
    2ada:	0e 94 9a 18 	call	0x3134	; 0x3134 <__cmpsf2>
    2ade:	88 23       	and	r24, r24
    2ae0:	2c f4       	brge	.+10     	; 0x2aec <.L203>

00002ae2 <.LM253>:
    2ae2:	81 e0       	ldi	r24, 0x01	; 1
    2ae4:	90 e0       	ldi	r25, 0x00	; 0
    2ae6:	9d a3       	std	Y+37, r25	; 0x25
    2ae8:	8c a3       	std	Y+36, r24	; 0x24
    2aea:	72 c0       	rjmp	.+228    	; 0x2bd0 <.L157>

00002aec <.L203>:
    2aec:	20 e0       	ldi	r18, 0x00	; 0
    2aee:	3f ef       	ldi	r19, 0xFF	; 255
    2af0:	4f e7       	ldi	r20, 0x7F	; 127
    2af2:	57 e4       	ldi	r21, 0x47	; 71
    2af4:	68 a1       	ldd	r22, Y+32	; 0x20
    2af6:	79 a1       	ldd	r23, Y+33	; 0x21
    2af8:	8a a1       	ldd	r24, Y+34	; 0x22
    2afa:	9b a1       	ldd	r25, Y+35	; 0x23
    2afc:	0e 94 b5 19 	call	0x336a	; 0x336a <__gesf2>
    2b00:	88 23       	and	r24, r24
    2b02:	09 f0       	breq	.+2      	; 0x2b06 <L0^A>

00002b04 <L0^A>:
    2b04:	0c f4       	brge	.+2      	; 0x2b08 <.LM255>

00002b06 <L0^A>:
    2b06:	4e c0       	rjmp	.+156    	; 0x2ba4 <.L204>

00002b08 <.LM255>:
    2b08:	20 e0       	ldi	r18, 0x00	; 0
    2b0a:	30 e0       	ldi	r19, 0x00	; 0
    2b0c:	40 e2       	ldi	r20, 0x20	; 32
    2b0e:	51 e4       	ldi	r21, 0x41	; 65
    2b10:	6c 8d       	ldd	r22, Y+28	; 0x1c
    2b12:	7d 8d       	ldd	r23, Y+29	; 0x1d
    2b14:	8e 8d       	ldd	r24, Y+30	; 0x1e
    2b16:	9f 8d       	ldd	r25, Y+31	; 0x1f
    2b18:	0e 94 ba 19 	call	0x3374	; 0x3374 <__mulsf3>
    2b1c:	c8 52       	subi	r28, 0x28	; 40
    2b1e:	df 4f       	sbci	r29, 0xFF	; 255
    2b20:	68 83       	st	Y, r22
    2b22:	79 83       	std	Y+1, r23	; 0x01
    2b24:	8a 83       	std	Y+2, r24	; 0x02
    2b26:	9b 83       	std	Y+3, r25	; 0x03
    2b28:	c8 5d       	subi	r28, 0xD8	; 216
    2b2a:	d0 40       	sbci	r29, 0x00	; 0
    2b2c:	c8 52       	subi	r28, 0x28	; 40
    2b2e:	df 4f       	sbci	r29, 0xFF	; 255
    2b30:	88 81       	ld	r24, Y
    2b32:	99 81       	ldd	r25, Y+1	; 0x01
    2b34:	aa 81       	ldd	r26, Y+2	; 0x02
    2b36:	bb 81       	ldd	r27, Y+3	; 0x03
    2b38:	c8 5d       	subi	r28, 0xD8	; 216
    2b3a:	d0 40       	sbci	r29, 0x00	; 0
    2b3c:	e8 96       	adiw	r28, 0x38	; 56
    2b3e:	8c af       	std	Y+60, r24	; 0x3c
    2b40:	9d af       	std	Y+61, r25	; 0x3d
    2b42:	ae af       	std	Y+62, r26	; 0x3e
    2b44:	bf af       	std	Y+63, r27	; 0x3f
    2b46:	e8 97       	sbiw	r28, 0x38	; 56

00002b48 <.LM256>:
    2b48:	e8 96       	adiw	r28, 0x38	; 56
    2b4a:	6c ad       	ldd	r22, Y+60	; 0x3c
    2b4c:	7d ad       	ldd	r23, Y+61	; 0x3d
    2b4e:	8e ad       	ldd	r24, Y+62	; 0x3e
    2b50:	9f ad       	ldd	r25, Y+63	; 0x3f
    2b52:	e8 97       	sbiw	r28, 0x38	; 56
    2b54:	0e 94 11 19 	call	0x3222	; 0x3222 <__fixunssfsi>
    2b58:	c4 52       	subi	r28, 0x24	; 36
    2b5a:	df 4f       	sbci	r29, 0xFF	; 255
    2b5c:	68 83       	st	Y, r22
    2b5e:	79 83       	std	Y+1, r23	; 0x01
    2b60:	8a 83       	std	Y+2, r24	; 0x02
    2b62:	9b 83       	std	Y+3, r25	; 0x03
    2b64:	cc 5d       	subi	r28, 0xDC	; 220
    2b66:	d0 40       	sbci	r29, 0x00	; 0
    2b68:	c4 52       	subi	r28, 0x24	; 36
    2b6a:	df 4f       	sbci	r29, 0xFF	; 255
    2b6c:	a8 81       	ld	r26, Y
    2b6e:	b9 81       	ldd	r27, Y+1	; 0x01
    2b70:	cc 5d       	subi	r28, 0xDC	; 220
    2b72:	d0 40       	sbci	r29, 0x00	; 0
    2b74:	bd a3       	std	Y+37, r27	; 0x25
    2b76:	ac a3       	std	Y+36, r26	; 0x24

00002b78 <.LM257>:
    2b78:	10 c0       	rjmp	.+32     	; 0x2b9a <.L160>

00002b7a <.L161>:
    2b7a:	89 e1       	ldi	r24, 0x19	; 25
    2b7c:	90 e0       	ldi	r25, 0x00	; 0
    2b7e:	9f a3       	std	Y+39, r25	; 0x27
    2b80:	8e a3       	std	Y+38, r24	; 0x26

00002b82 <.LM258>:
    2b82:	8e a1       	ldd	r24, Y+38	; 0x26
    2b84:	9f a1       	ldd	r25, Y+39	; 0x27

00002b86 <.L1^B27>:
    2b86:	01 97       	sbiw	r24, 0x01	; 1
    2b88:	f1 f7       	brne	.-4      	; 0x2b86 <.L1^B27>
    2b8a:	9f a3       	std	Y+39, r25	; 0x27
    2b8c:	8e a3       	std	Y+38, r24	; 0x26

00002b8e <.LM259>:
	...

00002b90 <.LM260>:
    2b90:	8c a1       	ldd	r24, Y+36	; 0x24
    2b92:	9d a1       	ldd	r25, Y+37	; 0x25
    2b94:	01 97       	sbiw	r24, 0x01	; 1
    2b96:	9d a3       	std	Y+37, r25	; 0x25
    2b98:	8c a3       	std	Y+36, r24	; 0x24

00002b9a <.L160>:
    2b9a:	8c a1       	ldd	r24, Y+36	; 0x24
    2b9c:	9d a1       	ldd	r25, Y+37	; 0x25
    2b9e:	00 97       	sbiw	r24, 0x00	; 0
    2ba0:	61 f7       	brne	.-40     	; 0x2b7a <.L161>

00002ba2 <.LM262>:
    2ba2:	64 c0       	rjmp	.+200    	; 0x2c6c <.L152>

00002ba4 <.L204>:
    2ba4:	68 a1       	ldd	r22, Y+32	; 0x20
    2ba6:	79 a1       	ldd	r23, Y+33	; 0x21
    2ba8:	8a a1       	ldd	r24, Y+34	; 0x22
    2baa:	9b a1       	ldd	r25, Y+35	; 0x23
    2bac:	0e 94 11 19 	call	0x3222	; 0x3222 <__fixunssfsi>
    2bb0:	c0 52       	subi	r28, 0x20	; 32
    2bb2:	df 4f       	sbci	r29, 0xFF	; 255
    2bb4:	68 83       	st	Y, r22
    2bb6:	79 83       	std	Y+1, r23	; 0x01
    2bb8:	8a 83       	std	Y+2, r24	; 0x02
    2bba:	9b 83       	std	Y+3, r25	; 0x03
    2bbc:	c0 5e       	subi	r28, 0xE0	; 224
    2bbe:	d0 40       	sbci	r29, 0x00	; 0
    2bc0:	c0 52       	subi	r28, 0x20	; 32
    2bc2:	df 4f       	sbci	r29, 0xFF	; 255
    2bc4:	e8 81       	ld	r30, Y
    2bc6:	f9 81       	ldd	r31, Y+1	; 0x01
    2bc8:	c0 5e       	subi	r28, 0xE0	; 224
    2bca:	d0 40       	sbci	r29, 0x00	; 0
    2bcc:	fd a3       	std	Y+37, r31	; 0x25
    2bce:	ec a3       	std	Y+36, r30	; 0x24

00002bd0 <.L157>:
    2bd0:	8c a1       	ldd	r24, Y+36	; 0x24
    2bd2:	9d a1       	ldd	r25, Y+37	; 0x25
    2bd4:	99 a7       	std	Y+41, r25	; 0x29
    2bd6:	88 a7       	std	Y+40, r24	; 0x28

00002bd8 <.LM264>:
    2bd8:	88 a5       	ldd	r24, Y+40	; 0x28
    2bda:	99 a5       	ldd	r25, Y+41	; 0x29

00002bdc <.L1^B28>:
    2bdc:	01 97       	sbiw	r24, 0x01	; 1
    2bde:	f1 f7       	brne	.-4      	; 0x2bdc <.L1^B28>
    2be0:	99 a7       	std	Y+41, r25	; 0x29
    2be2:	88 a7       	std	Y+40, r24	; 0x28

00002be4 <.LM265>:
    2be4:	43 c0       	rjmp	.+134    	; 0x2c6c <.L152>

00002be6 <.L202>:
    2be6:	20 e0       	ldi	r18, 0x00	; 0
    2be8:	30 e0       	ldi	r19, 0x00	; 0
    2bea:	4f e7       	ldi	r20, 0x7F	; 127
    2bec:	53 e4       	ldi	r21, 0x43	; 67
    2bee:	6b 89       	ldd	r22, Y+19	; 0x13
    2bf0:	7c 89       	ldd	r23, Y+20	; 0x14
    2bf2:	8d 89       	ldd	r24, Y+21	; 0x15
    2bf4:	9e 89       	ldd	r25, Y+22	; 0x16
    2bf6:	0e 94 b5 19 	call	0x336a	; 0x336a <__gesf2>
    2bfa:	88 23       	and	r24, r24
    2bfc:	19 f1       	breq	.+70     	; 0x2c44 <.L205>
    2bfe:	14 f1       	brlt	.+68     	; 0x2c44 <.L205>

00002c00 <.LM267>:
    2c00:	6f 89       	ldd	r22, Y+23	; 0x17
    2c02:	78 8d       	ldd	r23, Y+24	; 0x18
    2c04:	89 8d       	ldd	r24, Y+25	; 0x19
    2c06:	9a 8d       	ldd	r25, Y+26	; 0x1a
    2c08:	0e 94 11 19 	call	0x3222	; 0x3222 <__fixunssfsi>
    2c0c:	cc 51       	subi	r28, 0x1C	; 28
    2c0e:	df 4f       	sbci	r29, 0xFF	; 255
    2c10:	68 83       	st	Y, r22
    2c12:	79 83       	std	Y+1, r23	; 0x01
    2c14:	8a 83       	std	Y+2, r24	; 0x02
    2c16:	9b 83       	std	Y+3, r25	; 0x03
    2c18:	c4 5e       	subi	r28, 0xE4	; 228
    2c1a:	d0 40       	sbci	r29, 0x00	; 0
    2c1c:	cc 51       	subi	r28, 0x1C	; 28
    2c1e:	df 4f       	sbci	r29, 0xFF	; 255
    2c20:	88 81       	ld	r24, Y
    2c22:	99 81       	ldd	r25, Y+1	; 0x01
    2c24:	c4 5e       	subi	r28, 0xE4	; 228
    2c26:	d0 40       	sbci	r29, 0x00	; 0
    2c28:	9b a7       	std	Y+43, r25	; 0x2b
    2c2a:	8a a7       	std	Y+42, r24	; 0x2a
    2c2c:	8a a5       	ldd	r24, Y+42	; 0x2a
    2c2e:	9b a5       	ldd	r25, Y+43	; 0x2b
    2c30:	9d a7       	std	Y+45, r25	; 0x2d
    2c32:	8c a7       	std	Y+44, r24	; 0x2c

00002c34 <.LM268>:
    2c34:	8c a5       	ldd	r24, Y+44	; 0x2c
    2c36:	9d a5       	ldd	r25, Y+45	; 0x2d

00002c38 <.L1^B29>:
    2c38:	01 97       	sbiw	r24, 0x01	; 1
    2c3a:	f1 f7       	brne	.-4      	; 0x2c38 <.L1^B29>
    2c3c:	9d a7       	std	Y+45, r25	; 0x2d
    2c3e:	8c a7       	std	Y+44, r24	; 0x2c

00002c40 <.LM269>:
	...

00002c42 <.LM270>:
    2c42:	1b c0       	rjmp	.+54     	; 0x2c7a <.L165>

00002c44 <.L205>:
    2c44:	6b 89       	ldd	r22, Y+19	; 0x13
    2c46:	7c 89       	ldd	r23, Y+20	; 0x14
    2c48:	8d 89       	ldd	r24, Y+21	; 0x15
    2c4a:	9e 89       	ldd	r25, Y+22	; 0x16
    2c4c:	0e 94 11 19 	call	0x3222	; 0x3222 <__fixunssfsi>
    2c50:	c8 51       	subi	r28, 0x18	; 24
    2c52:	df 4f       	sbci	r29, 0xFF	; 255
    2c54:	68 83       	st	Y, r22
    2c56:	79 83       	std	Y+1, r23	; 0x01
    2c58:	8a 83       	std	Y+2, r24	; 0x02
    2c5a:	9b 83       	std	Y+3, r25	; 0x03
    2c5c:	c8 5e       	subi	r28, 0xE8	; 232
    2c5e:	d0 40       	sbci	r29, 0x00	; 0
    2c60:	c8 51       	subi	r28, 0x18	; 24
    2c62:	df 4f       	sbci	r29, 0xFF	; 255
    2c64:	98 81       	ld	r25, Y
    2c66:	c8 5e       	subi	r28, 0xE8	; 232
    2c68:	d0 40       	sbci	r29, 0x00	; 0
    2c6a:	9b 8f       	std	Y+27, r25	; 0x1b

00002c6c <.L152>:
    2c6c:	8b 8d       	ldd	r24, Y+27	; 0x1b
    2c6e:	8e a7       	std	Y+46, r24	; 0x2e

00002c70 <.LM272>:
    2c70:	8e a5       	ldd	r24, Y+46	; 0x2e

00002c72 <.L1^B30>:
    2c72:	8a 95       	dec	r24
    2c74:	f1 f7       	brne	.-4      	; 0x2c72 <.L1^B30>
    2c76:	8e a7       	std	Y+46, r24	; 0x2e

00002c78 <.LM273>:
	...

00002c7a <.L165>:
    2c7a:	40 e0       	ldi	r20, 0x00	; 0
    2c7c:	62 e0       	ldi	r22, 0x02	; 2
    2c7e:	82 e0       	ldi	r24, 0x02	; 2
    2c80:	0e 94 4e 05 	call	0xa9c	; 0xa9c <GPIO_SetPinValue>
    2c84:	80 e0       	ldi	r24, 0x00	; 0
    2c86:	90 e0       	ldi	r25, 0x00	; 0
    2c88:	a0 e0       	ldi	r26, 0x00	; 0
    2c8a:	b0 e4       	ldi	r27, 0x40	; 64
    2c8c:	89 83       	std	Y+1, r24	; 0x01
    2c8e:	9a 83       	std	Y+2, r25	; 0x02
    2c90:	ab 83       	std	Y+3, r26	; 0x03
    2c92:	bc 83       	std	Y+4, r27	; 0x04

00002c94 <.LM275>:
    2c94:	20 e0       	ldi	r18, 0x00	; 0
    2c96:	30 e0       	ldi	r19, 0x00	; 0
    2c98:	4a e7       	ldi	r20, 0x7A	; 122
    2c9a:	53 e4       	ldi	r21, 0x43	; 67
    2c9c:	69 81       	ldd	r22, Y+1	; 0x01
    2c9e:	7a 81       	ldd	r23, Y+2	; 0x02
    2ca0:	8b 81       	ldd	r24, Y+3	; 0x03
    2ca2:	9c 81       	ldd	r25, Y+4	; 0x04
    2ca4:	0e 94 ba 19 	call	0x3374	; 0x3374 <__mulsf3>
    2ca8:	c4 51       	subi	r28, 0x14	; 20
    2caa:	df 4f       	sbci	r29, 0xFF	; 255
    2cac:	68 83       	st	Y, r22
    2cae:	79 83       	std	Y+1, r23	; 0x01
    2cb0:	8a 83       	std	Y+2, r24	; 0x02
    2cb2:	9b 83       	std	Y+3, r25	; 0x03
    2cb4:	cc 5e       	subi	r28, 0xEC	; 236
    2cb6:	d0 40       	sbci	r29, 0x00	; 0
    2cb8:	c4 51       	subi	r28, 0x14	; 20
    2cba:	df 4f       	sbci	r29, 0xFF	; 255
    2cbc:	88 81       	ld	r24, Y
    2cbe:	99 81       	ldd	r25, Y+1	; 0x01
    2cc0:	aa 81       	ldd	r26, Y+2	; 0x02
    2cc2:	bb 81       	ldd	r27, Y+3	; 0x03
    2cc4:	cc 5e       	subi	r28, 0xEC	; 236
    2cc6:	d0 40       	sbci	r29, 0x00	; 0
    2cc8:	8d 83       	std	Y+5, r24	; 0x05
    2cca:	9e 83       	std	Y+6, r25	; 0x06
    2ccc:	af 83       	std	Y+7, r26	; 0x07
    2cce:	b8 87       	std	Y+8, r27	; 0x08

00002cd0 <.LM276>:
    2cd0:	20 e0       	ldi	r18, 0x00	; 0
    2cd2:	30 e0       	ldi	r19, 0x00	; 0
    2cd4:	40 e8       	ldi	r20, 0x80	; 128
    2cd6:	5f e3       	ldi	r21, 0x3F	; 63
    2cd8:	6d 81       	ldd	r22, Y+5	; 0x05
    2cda:	7e 81       	ldd	r23, Y+6	; 0x06
    2cdc:	8f 81       	ldd	r24, Y+7	; 0x07
    2cde:	98 85       	ldd	r25, Y+8	; 0x08
    2ce0:	0e 94 9a 18 	call	0x3134	; 0x3134 <__cmpsf2>
    2ce4:	88 23       	and	r24, r24
    2ce6:	2c f4       	brge	.+10     	; 0x2cf2 <.L206>

00002ce8 <.LM277>:
    2ce8:	81 e0       	ldi	r24, 0x01	; 1
    2cea:	90 e0       	ldi	r25, 0x00	; 0
    2cec:	9a 87       	std	Y+10, r25	; 0x0a
    2cee:	89 87       	std	Y+9, r24	; 0x09
    2cf0:	72 c0       	rjmp	.+228    	; 0x2dd6 <.L168>

00002cf2 <.L206>:
    2cf2:	20 e0       	ldi	r18, 0x00	; 0
    2cf4:	3f ef       	ldi	r19, 0xFF	; 255
    2cf6:	4f e7       	ldi	r20, 0x7F	; 127
    2cf8:	57 e4       	ldi	r21, 0x47	; 71
    2cfa:	6d 81       	ldd	r22, Y+5	; 0x05
    2cfc:	7e 81       	ldd	r23, Y+6	; 0x06
    2cfe:	8f 81       	ldd	r24, Y+7	; 0x07
    2d00:	98 85       	ldd	r25, Y+8	; 0x08
    2d02:	0e 94 b5 19 	call	0x336a	; 0x336a <__gesf2>
    2d06:	88 23       	and	r24, r24
    2d08:	09 f0       	breq	.+2      	; 0x2d0c <L0^A>

00002d0a <L0^A>:
    2d0a:	0c f4       	brge	.+2      	; 0x2d0e <.LM279>

00002d0c <L0^A>:
    2d0c:	4e c0       	rjmp	.+156    	; 0x2daa <.L207>

00002d0e <.LM279>:
    2d0e:	20 e0       	ldi	r18, 0x00	; 0
    2d10:	30 e0       	ldi	r19, 0x00	; 0
    2d12:	40 e2       	ldi	r20, 0x20	; 32
    2d14:	51 e4       	ldi	r21, 0x41	; 65
    2d16:	69 81       	ldd	r22, Y+1	; 0x01
    2d18:	7a 81       	ldd	r23, Y+2	; 0x02
    2d1a:	8b 81       	ldd	r24, Y+3	; 0x03
    2d1c:	9c 81       	ldd	r25, Y+4	; 0x04
    2d1e:	0e 94 ba 19 	call	0x3374	; 0x3374 <__mulsf3>
    2d22:	c0 51       	subi	r28, 0x10	; 16
    2d24:	df 4f       	sbci	r29, 0xFF	; 255
    2d26:	68 83       	st	Y, r22
    2d28:	79 83       	std	Y+1, r23	; 0x01
    2d2a:	8a 83       	std	Y+2, r24	; 0x02
    2d2c:	9b 83       	std	Y+3, r25	; 0x03
    2d2e:	c0 5f       	subi	r28, 0xF0	; 240
    2d30:	d0 40       	sbci	r29, 0x00	; 0
    2d32:	c0 51       	subi	r28, 0x10	; 16
    2d34:	df 4f       	sbci	r29, 0xFF	; 255
    2d36:	88 81       	ld	r24, Y
    2d38:	99 81       	ldd	r25, Y+1	; 0x01
    2d3a:	aa 81       	ldd	r26, Y+2	; 0x02
    2d3c:	bb 81       	ldd	r27, Y+3	; 0x03
    2d3e:	c0 5f       	subi	r28, 0xF0	; 240
    2d40:	d0 40       	sbci	r29, 0x00	; 0
    2d42:	e4 96       	adiw	r28, 0x34	; 52
    2d44:	8c af       	std	Y+60, r24	; 0x3c
    2d46:	9d af       	std	Y+61, r25	; 0x3d
    2d48:	ae af       	std	Y+62, r26	; 0x3e
    2d4a:	bf af       	std	Y+63, r27	; 0x3f
    2d4c:	e4 97       	sbiw	r28, 0x34	; 52

00002d4e <.LM280>:
    2d4e:	e4 96       	adiw	r28, 0x34	; 52
    2d50:	6c ad       	ldd	r22, Y+60	; 0x3c
    2d52:	7d ad       	ldd	r23, Y+61	; 0x3d
    2d54:	8e ad       	ldd	r24, Y+62	; 0x3e
    2d56:	9f ad       	ldd	r25, Y+63	; 0x3f
    2d58:	e4 97       	sbiw	r28, 0x34	; 52
    2d5a:	0e 94 11 19 	call	0x3222	; 0x3222 <__fixunssfsi>
    2d5e:	cc 50       	subi	r28, 0x0C	; 12
    2d60:	df 4f       	sbci	r29, 0xFF	; 255
    2d62:	68 83       	st	Y, r22
    2d64:	79 83       	std	Y+1, r23	; 0x01
    2d66:	8a 83       	std	Y+2, r24	; 0x02
    2d68:	9b 83       	std	Y+3, r25	; 0x03
    2d6a:	c4 5f       	subi	r28, 0xF4	; 244
    2d6c:	d0 40       	sbci	r29, 0x00	; 0
    2d6e:	cc 50       	subi	r28, 0x0C	; 12
    2d70:	df 4f       	sbci	r29, 0xFF	; 255
    2d72:	a8 81       	ld	r26, Y
    2d74:	b9 81       	ldd	r27, Y+1	; 0x01
    2d76:	c4 5f       	subi	r28, 0xF4	; 244
    2d78:	d0 40       	sbci	r29, 0x00	; 0
    2d7a:	ba 87       	std	Y+10, r27	; 0x0a
    2d7c:	a9 87       	std	Y+9, r26	; 0x09

00002d7e <.LM281>:
    2d7e:	10 c0       	rjmp	.+32     	; 0x2da0 <.L171>

00002d80 <.L172>:
    2d80:	89 e1       	ldi	r24, 0x19	; 25
    2d82:	90 e0       	ldi	r25, 0x00	; 0
    2d84:	9c 87       	std	Y+12, r25	; 0x0c
    2d86:	8b 87       	std	Y+11, r24	; 0x0b

00002d88 <.LM282>:
    2d88:	8b 85       	ldd	r24, Y+11	; 0x0b
    2d8a:	9c 85       	ldd	r25, Y+12	; 0x0c

00002d8c <.L1^B31>:
    2d8c:	01 97       	sbiw	r24, 0x01	; 1
    2d8e:	f1 f7       	brne	.-4      	; 0x2d8c <.L1^B31>
    2d90:	9c 87       	std	Y+12, r25	; 0x0c
    2d92:	8b 87       	std	Y+11, r24	; 0x0b

00002d94 <.LM283>:
	...

00002d96 <.LM284>:
    2d96:	89 85       	ldd	r24, Y+9	; 0x09
    2d98:	9a 85       	ldd	r25, Y+10	; 0x0a
    2d9a:	01 97       	sbiw	r24, 0x01	; 1
    2d9c:	9a 87       	std	Y+10, r25	; 0x0a
    2d9e:	89 87       	std	Y+9, r24	; 0x09

00002da0 <.L171>:
    2da0:	89 85       	ldd	r24, Y+9	; 0x09
    2da2:	9a 85       	ldd	r25, Y+10	; 0x0a
    2da4:	00 97       	sbiw	r24, 0x00	; 0
    2da6:	61 f7       	brne	.-40     	; 0x2d80 <.L172>

00002da8 <.LM286>:
    2da8:	21 c0       	rjmp	.+66     	; 0x2dec <.L173>

00002daa <.L207>:
    2daa:	6d 81       	ldd	r22, Y+5	; 0x05
    2dac:	7e 81       	ldd	r23, Y+6	; 0x06
    2dae:	8f 81       	ldd	r24, Y+7	; 0x07
    2db0:	98 85       	ldd	r25, Y+8	; 0x08
    2db2:	0e 94 11 19 	call	0x3222	; 0x3222 <__fixunssfsi>
    2db6:	c8 50       	subi	r28, 0x08	; 8
    2db8:	df 4f       	sbci	r29, 0xFF	; 255
    2dba:	68 83       	st	Y, r22
    2dbc:	79 83       	std	Y+1, r23	; 0x01
    2dbe:	8a 83       	std	Y+2, r24	; 0x02
    2dc0:	9b 83       	std	Y+3, r25	; 0x03
    2dc2:	c8 5f       	subi	r28, 0xF8	; 248
    2dc4:	d0 40       	sbci	r29, 0x00	; 0
    2dc6:	c8 50       	subi	r28, 0x08	; 8
    2dc8:	df 4f       	sbci	r29, 0xFF	; 255
    2dca:	e8 81       	ld	r30, Y
    2dcc:	f9 81       	ldd	r31, Y+1	; 0x01
    2dce:	c8 5f       	subi	r28, 0xF8	; 248
    2dd0:	d0 40       	sbci	r29, 0x00	; 0
    2dd2:	fa 87       	std	Y+10, r31	; 0x0a
    2dd4:	e9 87       	std	Y+9, r30	; 0x09

00002dd6 <.L168>:
    2dd6:	89 85       	ldd	r24, Y+9	; 0x09
    2dd8:	9a 85       	ldd	r25, Y+10	; 0x0a
    2dda:	9e 87       	std	Y+14, r25	; 0x0e
    2ddc:	8d 87       	std	Y+13, r24	; 0x0d

00002dde <.LM288>:
    2dde:	8d 85       	ldd	r24, Y+13	; 0x0d
    2de0:	9e 85       	ldd	r25, Y+14	; 0x0e

00002de2 <.L1^B32>:
    2de2:	01 97       	sbiw	r24, 0x01	; 1
    2de4:	f1 f7       	brne	.-4      	; 0x2de2 <.L1^B32>
    2de6:	9e 87       	std	Y+14, r25	; 0x0e
    2de8:	8d 87       	std	Y+13, r24	; 0x0d

00002dea <.LM289>:
	...

00002dec <.L173>:
    2dec:	00 00       	nop
    2dee:	c5 50       	subi	r28, 0x05	; 5
    2df0:	df 4f       	sbci	r29, 0xFF	; 255
    2df2:	0f b6       	in	r0, 0x3f	; 63
    2df4:	f8 94       	cli
    2df6:	de bf       	out	0x3e, r29	; 62
    2df8:	0f be       	out	0x3f, r0	; 63
    2dfa:	cd bf       	out	0x3d, r28	; 61
    2dfc:	df 91       	pop	r29
    2dfe:	cf 91       	pop	r28
    2e00:	1f 91       	pop	r17
    2e02:	0f 91       	pop	r16
    2e04:	08 95       	ret

00002e06 <LCD_SendString>:
    2e06:	cf 93       	push	r28
    2e08:	df 93       	push	r29
    2e0a:	00 d0       	rcall	.+0      	; 0x2e0c <L0^A>

00002e0c <L0^A>:
    2e0c:	00 d0       	rcall	.+0      	; 0x2e0e <L0^A>

00002e0e <L0^A>:
    2e0e:	cd b7       	in	r28, 0x3d	; 61
    2e10:	de b7       	in	r29, 0x3e	; 62
    2e12:	9c 83       	std	Y+4, r25	; 0x04
    2e14:	8b 83       	std	Y+3, r24	; 0x03

00002e16 <.LM292>:
    2e16:	1a 82       	std	Y+2, r1	; 0x02
    2e18:	19 82       	std	Y+1, r1	; 0x01

00002e1a <.LM293>:
    2e1a:	0f c0       	rjmp	.+30     	; 0x2e3a <.L209>

00002e1c <.L210>:
    2e1c:	89 81       	ldd	r24, Y+1	; 0x01
    2e1e:	9a 81       	ldd	r25, Y+2	; 0x02
    2e20:	2b 81       	ldd	r18, Y+3	; 0x03
    2e22:	3c 81       	ldd	r19, Y+4	; 0x04
    2e24:	82 0f       	add	r24, r18
    2e26:	93 1f       	adc	r25, r19

00002e28 <.LM295>:
    2e28:	fc 01       	movw	r30, r24
    2e2a:	80 81       	ld	r24, Z
    2e2c:	0e 94 33 10 	call	0x2066	; 0x2066 <LCD_SendChar>

00002e30 <.LM296>:
    2e30:	89 81       	ldd	r24, Y+1	; 0x01
    2e32:	9a 81       	ldd	r25, Y+2	; 0x02
    2e34:	01 96       	adiw	r24, 0x01	; 1
    2e36:	9a 83       	std	Y+2, r25	; 0x02
    2e38:	89 83       	std	Y+1, r24	; 0x01

00002e3a <.L209>:
    2e3a:	89 81       	ldd	r24, Y+1	; 0x01
    2e3c:	9a 81       	ldd	r25, Y+2	; 0x02
    2e3e:	2b 81       	ldd	r18, Y+3	; 0x03
    2e40:	3c 81       	ldd	r19, Y+4	; 0x04
    2e42:	82 0f       	add	r24, r18
    2e44:	93 1f       	adc	r25, r19
    2e46:	fc 01       	movw	r30, r24
    2e48:	80 81       	ld	r24, Z

00002e4a <.LM298>:
    2e4a:	88 23       	and	r24, r24
    2e4c:	39 f7       	brne	.-50     	; 0x2e1c <.L210>

00002e4e <.LM299>:
    2e4e:	00 00       	nop
    2e50:	00 00       	nop
    2e52:	0f 90       	pop	r0
    2e54:	0f 90       	pop	r0
    2e56:	0f 90       	pop	r0
    2e58:	0f 90       	pop	r0
    2e5a:	df 91       	pop	r29
    2e5c:	cf 91       	pop	r28
    2e5e:	08 95       	ret

00002e60 <LCD_GotoXy>:
    2e60:	cf 93       	push	r28
    2e62:	df 93       	push	r29
    2e64:	00 d0       	rcall	.+0      	; 0x2e66 <L0^A>

00002e66 <L0^A>:
    2e66:	0f 92       	push	r0
    2e68:	cd b7       	in	r28, 0x3d	; 61
    2e6a:	de b7       	in	r29, 0x3e	; 62
    2e6c:	8a 83       	std	Y+2, r24	; 0x02
    2e6e:	6b 83       	std	Y+3, r22	; 0x03

00002e70 <.LM301>:
    2e70:	8a 81       	ldd	r24, Y+2	; 0x02
    2e72:	89 83       	std	Y+1, r24	; 0x01

00002e74 <.LM302>:
    2e74:	8b 81       	ldd	r24, Y+3	; 0x03
    2e76:	88 2f       	mov	r24, r24
    2e78:	90 e0       	ldi	r25, 0x00	; 0
    2e7a:	83 30       	cpi	r24, 0x03	; 3
    2e7c:	91 05       	cpc	r25, r1
    2e7e:	e1 f0       	breq	.+56     	; 0x2eb8 <.L212>
    2e80:	83 30       	cpi	r24, 0x03	; 3
    2e82:	91 05       	cpc	r25, r1
    2e84:	09 f0       	breq	.+2      	; 0x2e88 <L0^A+0x2>

00002e86 <L0^A>:
    2e86:	e4 f4       	brge	.+56     	; 0x2ec0 <.L213>
    2e88:	82 30       	cpi	r24, 0x02	; 2
    2e8a:	91 05       	cpc	r25, r1
    2e8c:	89 f0       	breq	.+34     	; 0x2eb0 <.L214>
    2e8e:	82 30       	cpi	r24, 0x02	; 2
    2e90:	91 05       	cpc	r25, r1
    2e92:	09 f0       	breq	.+2      	; 0x2e96 <L0^A+0x2>

00002e94 <L0^A>:
    2e94:	ac f4       	brge	.+42     	; 0x2ec0 <.L213>
    2e96:	00 97       	sbiw	r24, 0x00	; 0
    2e98:	21 f0       	breq	.+8      	; 0x2ea2 <.L215>
    2e9a:	81 30       	cpi	r24, 0x01	; 1
    2e9c:	91 05       	cpc	r25, r1
    2e9e:	21 f0       	breq	.+8      	; 0x2ea8 <.L216>
    2ea0:	0f c0       	rjmp	.+30     	; 0x2ec0 <.L213>

00002ea2 <.L215>:
    2ea2:	8a 81       	ldd	r24, Y+2	; 0x02
    2ea4:	89 83       	std	Y+1, r24	; 0x01

00002ea6 <.LM304>:
    2ea6:	0c c0       	rjmp	.+24     	; 0x2ec0 <.L213>

00002ea8 <.L216>:
    2ea8:	8a 81       	ldd	r24, Y+2	; 0x02
    2eaa:	80 54       	subi	r24, 0x40	; 64
    2eac:	89 83       	std	Y+1, r24	; 0x01

00002eae <.LM306>:
    2eae:	08 c0       	rjmp	.+16     	; 0x2ec0 <.L213>

00002eb0 <.L214>:
    2eb0:	8a 81       	ldd	r24, Y+2	; 0x02
    2eb2:	8c 56       	subi	r24, 0x6C	; 108
    2eb4:	89 83       	std	Y+1, r24	; 0x01

00002eb6 <.LM308>:
    2eb6:	04 c0       	rjmp	.+8      	; 0x2ec0 <.L213>

00002eb8 <.L212>:
    2eb8:	8a 81       	ldd	r24, Y+2	; 0x02
    2eba:	8c 52       	subi	r24, 0x2C	; 44
    2ebc:	89 83       	std	Y+1, r24	; 0x01

00002ebe <.LM310>:
	...

00002ec0 <.L213>:
    2ec0:	89 81       	ldd	r24, Y+1	; 0x01
    2ec2:	80 68       	ori	r24, 0x80	; 128
    2ec4:	0e 94 63 09 	call	0x12c6	; 0x12c6 <LCD_SendCommand>

00002ec8 <.LM312>:
    2ec8:	00 00       	nop
    2eca:	0f 90       	pop	r0
    2ecc:	0f 90       	pop	r0
    2ece:	0f 90       	pop	r0
    2ed0:	df 91       	pop	r29
    2ed2:	cf 91       	pop	r28
    2ed4:	08 95       	ret

00002ed6 <LCD_SendNumber>:
    2ed6:	cf 93       	push	r28
    2ed8:	df 93       	push	r29
    2eda:	cd b7       	in	r28, 0x3d	; 61
    2edc:	de b7       	in	r29, 0x3e	; 62
    2ede:	63 97       	sbiw	r28, 0x13	; 19
    2ee0:	0f b6       	in	r0, 0x3f	; 63
    2ee2:	f8 94       	cli
    2ee4:	de bf       	out	0x3e, r29	; 62
    2ee6:	0f be       	out	0x3f, r0	; 63
    2ee8:	cd bf       	out	0x3d, r28	; 61
    2eea:	9b 8b       	std	Y+19, r25	; 0x13
    2eec:	8a 8b       	std	Y+18, r24	; 0x12

00002eee <.LM314>:
    2eee:	8a 89       	ldd	r24, Y+18	; 0x12
    2ef0:	9b 89       	ldd	r25, Y+19	; 0x13
    2ef2:	4a e0       	ldi	r20, 0x0A	; 10
    2ef4:	50 e0       	ldi	r21, 0x00	; 0
    2ef6:	9e 01       	movw	r18, r28
    2ef8:	2f 5f       	subi	r18, 0xFF	; 255
    2efa:	3f 4f       	sbci	r19, 0xFF	; 255
    2efc:	b9 01       	movw	r22, r18
    2efe:	0e 94 27 1a 	call	0x344e	; 0x344e <itoa>

00002f02 <.LM315>:
    2f02:	ce 01       	movw	r24, r28
    2f04:	01 96       	adiw	r24, 0x01	; 1
    2f06:	0e 94 03 17 	call	0x2e06	; 0x2e06 <LCD_SendString>

00002f0a <.LM316>:
    2f0a:	00 00       	nop
    2f0c:	63 96       	adiw	r28, 0x13	; 19
    2f0e:	0f b6       	in	r0, 0x3f	; 63
    2f10:	f8 94       	cli
    2f12:	de bf       	out	0x3e, r29	; 62
    2f14:	0f be       	out	0x3f, r0	; 63
    2f16:	cd bf       	out	0x3d, r28	; 61
    2f18:	df 91       	pop	r29
    2f1a:	cf 91       	pop	r28
    2f1c:	08 95       	ret

00002f1e <KEYPAD_Init>:
    2f1e:	cf 93       	push	r28
    2f20:	df 93       	push	r29
    2f22:	cd b7       	in	r28, 0x3d	; 61
    2f24:	de b7       	in	r29, 0x3e	; 62

00002f26 <.LM1>:
    2f26:	40 e0       	ldi	r20, 0x00	; 0
    2f28:	60 e0       	ldi	r22, 0x00	; 0
    2f2a:	83 e0       	ldi	r24, 0x03	; 3
    2f2c:	0e 94 63 04 	call	0x8c6	; 0x8c6 <GPIO_SetPinDirection>

00002f30 <.LM2>:
    2f30:	40 e0       	ldi	r20, 0x00	; 0
    2f32:	61 e0       	ldi	r22, 0x01	; 1
    2f34:	83 e0       	ldi	r24, 0x03	; 3
    2f36:	0e 94 63 04 	call	0x8c6	; 0x8c6 <GPIO_SetPinDirection>

00002f3a <.LM3>:
    2f3a:	40 e0       	ldi	r20, 0x00	; 0
    2f3c:	62 e0       	ldi	r22, 0x02	; 2
    2f3e:	83 e0       	ldi	r24, 0x03	; 3
    2f40:	0e 94 63 04 	call	0x8c6	; 0x8c6 <GPIO_SetPinDirection>

00002f44 <.LM4>:
    2f44:	40 e0       	ldi	r20, 0x00	; 0
    2f46:	63 e0       	ldi	r22, 0x03	; 3
    2f48:	83 e0       	ldi	r24, 0x03	; 3
    2f4a:	0e 94 63 04 	call	0x8c6	; 0x8c6 <GPIO_SetPinDirection>

00002f4e <.LM5>:
    2f4e:	41 e0       	ldi	r20, 0x01	; 1
    2f50:	60 e0       	ldi	r22, 0x00	; 0
    2f52:	83 e0       	ldi	r24, 0x03	; 3
    2f54:	0e 94 4e 05 	call	0xa9c	; 0xa9c <GPIO_SetPinValue>

00002f58 <.LM6>:
    2f58:	41 e0       	ldi	r20, 0x01	; 1
    2f5a:	61 e0       	ldi	r22, 0x01	; 1
    2f5c:	83 e0       	ldi	r24, 0x03	; 3
    2f5e:	0e 94 4e 05 	call	0xa9c	; 0xa9c <GPIO_SetPinValue>

00002f62 <.LM7>:
    2f62:	41 e0       	ldi	r20, 0x01	; 1
    2f64:	62 e0       	ldi	r22, 0x02	; 2
    2f66:	83 e0       	ldi	r24, 0x03	; 3
    2f68:	0e 94 4e 05 	call	0xa9c	; 0xa9c <GPIO_SetPinValue>

00002f6c <.LM8>:
    2f6c:	41 e0       	ldi	r20, 0x01	; 1
    2f6e:	63 e0       	ldi	r22, 0x03	; 3
    2f70:	83 e0       	ldi	r24, 0x03	; 3
    2f72:	0e 94 4e 05 	call	0xa9c	; 0xa9c <GPIO_SetPinValue>

00002f76 <.LM9>:
    2f76:	41 e0       	ldi	r20, 0x01	; 1
    2f78:	64 e0       	ldi	r22, 0x04	; 4
    2f7a:	83 e0       	ldi	r24, 0x03	; 3
    2f7c:	0e 94 63 04 	call	0x8c6	; 0x8c6 <GPIO_SetPinDirection>

00002f80 <.LM10>:
    2f80:	41 e0       	ldi	r20, 0x01	; 1
    2f82:	65 e0       	ldi	r22, 0x05	; 5
    2f84:	83 e0       	ldi	r24, 0x03	; 3
    2f86:	0e 94 63 04 	call	0x8c6	; 0x8c6 <GPIO_SetPinDirection>

00002f8a <.LM11>:
    2f8a:	41 e0       	ldi	r20, 0x01	; 1
    2f8c:	66 e0       	ldi	r22, 0x06	; 6
    2f8e:	83 e0       	ldi	r24, 0x03	; 3
    2f90:	0e 94 63 04 	call	0x8c6	; 0x8c6 <GPIO_SetPinDirection>

00002f94 <.LM12>:
    2f94:	41 e0       	ldi	r20, 0x01	; 1
    2f96:	67 e0       	ldi	r22, 0x07	; 7
    2f98:	83 e0       	ldi	r24, 0x03	; 3
    2f9a:	0e 94 63 04 	call	0x8c6	; 0x8c6 <GPIO_SetPinDirection>

00002f9e <.LM13>:
    2f9e:	41 e0       	ldi	r20, 0x01	; 1
    2fa0:	64 e0       	ldi	r22, 0x04	; 4
    2fa2:	83 e0       	ldi	r24, 0x03	; 3
    2fa4:	0e 94 4e 05 	call	0xa9c	; 0xa9c <GPIO_SetPinValue>

00002fa8 <.LM14>:
    2fa8:	41 e0       	ldi	r20, 0x01	; 1
    2faa:	65 e0       	ldi	r22, 0x05	; 5
    2fac:	83 e0       	ldi	r24, 0x03	; 3
    2fae:	0e 94 4e 05 	call	0xa9c	; 0xa9c <GPIO_SetPinValue>

00002fb2 <.LM15>:
    2fb2:	41 e0       	ldi	r20, 0x01	; 1
    2fb4:	66 e0       	ldi	r22, 0x06	; 6
    2fb6:	83 e0       	ldi	r24, 0x03	; 3
    2fb8:	0e 94 4e 05 	call	0xa9c	; 0xa9c <GPIO_SetPinValue>

00002fbc <.LM16>:
    2fbc:	41 e0       	ldi	r20, 0x01	; 1
    2fbe:	67 e0       	ldi	r22, 0x07	; 7
    2fc0:	83 e0       	ldi	r24, 0x03	; 3
    2fc2:	0e 94 4e 05 	call	0xa9c	; 0xa9c <GPIO_SetPinValue>

00002fc6 <.LM17>:
    2fc6:	00 00       	nop
    2fc8:	df 91       	pop	r29
    2fca:	cf 91       	pop	r28
    2fcc:	08 95       	ret

00002fce <KEYPAD_GetKey>:
    2fce:	cf 93       	push	r28
    2fd0:	df 93       	push	r29
    2fd2:	00 d0       	rcall	.+0      	; 0x2fd4 <L0^A>

00002fd4 <L0^A>:
    2fd4:	00 d0       	rcall	.+0      	; 0x2fd6 <L0^A>

00002fd6 <L0^A>:
    2fd6:	cd b7       	in	r28, 0x3d	; 61
    2fd8:	de b7       	in	r29, 0x3e	; 62

00002fda <.LM19>:
    2fda:	8f ef       	ldi	r24, 0xFF	; 255
    2fdc:	8c 83       	std	Y+4, r24	; 0x04

00002fde <.LM20>:
    2fde:	1a 82       	std	Y+2, r1	; 0x02

00002fe0 <.LM21>:
    2fe0:	56 c0       	rjmp	.+172    	; 0x308e <.L3>

00002fe2 <.L10>:
    2fe2:	8a 81       	ldd	r24, Y+2	; 0x02
    2fe4:	88 2f       	mov	r24, r24
    2fe6:	90 e0       	ldi	r25, 0x00	; 0
    2fe8:	80 5a       	subi	r24, 0xA0	; 160
    2fea:	9f 4f       	sbci	r25, 0xFF	; 255
    2fec:	fc 01       	movw	r30, r24
    2fee:	80 81       	ld	r24, Z
    2ff0:	40 e0       	ldi	r20, 0x00	; 0
    2ff2:	68 2f       	mov	r22, r24
    2ff4:	83 e0       	ldi	r24, 0x03	; 3
    2ff6:	0e 94 4e 05 	call	0xa9c	; 0xa9c <GPIO_SetPinValue>

00002ffa <.LM23>:
    2ffa:	1b 82       	std	Y+3, r1	; 0x03

00002ffc <.LM24>:
    2ffc:	35 c0       	rjmp	.+106    	; 0x3068 <.L4>

00002ffe <.L9>:
    2ffe:	8b 81       	ldd	r24, Y+3	; 0x03
    3000:	88 2f       	mov	r24, r24
    3002:	90 e0       	ldi	r25, 0x00	; 0
    3004:	8c 59       	subi	r24, 0x9C	; 156
    3006:	9f 4f       	sbci	r25, 0xFF	; 255
    3008:	fc 01       	movw	r30, r24
    300a:	80 81       	ld	r24, Z
    300c:	68 2f       	mov	r22, r24
    300e:	83 e0       	ldi	r24, 0x03	; 3
    3010:	0e 94 39 06 	call	0xc72	; 0xc72 <GPIO_GetPinValue>
    3014:	89 83       	std	Y+1, r24	; 0x01

00003016 <.LM26>:
    3016:	89 81       	ldd	r24, Y+1	; 0x01
    3018:	88 23       	and	r24, r24
    301a:	19 f5       	brne	.+70     	; 0x3062 <.L5>

0000301c <.LM27>:
    301c:	8b 81       	ldd	r24, Y+3	; 0x03
    301e:	28 2f       	mov	r18, r24
    3020:	30 e0       	ldi	r19, 0x00	; 0
    3022:	8a 81       	ldd	r24, Y+2	; 0x02
    3024:	88 2f       	mov	r24, r24
    3026:	90 e0       	ldi	r25, 0x00	; 0

00003028 <.LM28>:
    3028:	22 0f       	add	r18, r18
    302a:	33 1f       	adc	r19, r19
    302c:	22 0f       	add	r18, r18
    302e:	33 1f       	adc	r19, r19
    3030:	82 0f       	add	r24, r18
    3032:	93 1f       	adc	r25, r19
    3034:	88 59       	subi	r24, 0x98	; 152
    3036:	9f 4f       	sbci	r25, 0xFF	; 255
    3038:	fc 01       	movw	r30, r24
    303a:	80 81       	ld	r24, Z
    303c:	8c 83       	std	Y+4, r24	; 0x04

0000303e <.LM29>:
    303e:	0c c0       	rjmp	.+24     	; 0x3058 <.L6>

00003040 <.L7>:
    3040:	8b 81       	ldd	r24, Y+3	; 0x03
    3042:	88 2f       	mov	r24, r24
    3044:	90 e0       	ldi	r25, 0x00	; 0
    3046:	8c 59       	subi	r24, 0x9C	; 156
    3048:	9f 4f       	sbci	r25, 0xFF	; 255
    304a:	fc 01       	movw	r30, r24
    304c:	80 81       	ld	r24, Z
    304e:	68 2f       	mov	r22, r24
    3050:	83 e0       	ldi	r24, 0x03	; 3
    3052:	0e 94 39 06 	call	0xc72	; 0xc72 <GPIO_GetPinValue>
    3056:	89 83       	std	Y+1, r24	; 0x01

00003058 <.L6>:
    3058:	89 81       	ldd	r24, Y+1	; 0x01
    305a:	88 23       	and	r24, r24
    305c:	89 f3       	breq	.-30     	; 0x3040 <.L7>

0000305e <.LM32>:
    305e:	8c 81       	ldd	r24, Y+4	; 0x04
    3060:	1c c0       	rjmp	.+56     	; 0x309a <.L8>

00003062 <.L5>:
    3062:	8b 81       	ldd	r24, Y+3	; 0x03
    3064:	8f 5f       	subi	r24, 0xFF	; 255
    3066:	8b 83       	std	Y+3, r24	; 0x03

00003068 <.L4>:
    3068:	8b 81       	ldd	r24, Y+3	; 0x03
    306a:	83 30       	cpi	r24, 0x03	; 3
    306c:	41 f2       	breq	.-112    	; 0x2ffe <.L9>
    306e:	38 f2       	brcs	.-114    	; 0x2ffe <.L9>

00003070 <.LM35>:
    3070:	8a 81       	ldd	r24, Y+2	; 0x02
    3072:	88 2f       	mov	r24, r24
    3074:	90 e0       	ldi	r25, 0x00	; 0
    3076:	80 5a       	subi	r24, 0xA0	; 160
    3078:	9f 4f       	sbci	r25, 0xFF	; 255
    307a:	fc 01       	movw	r30, r24
    307c:	80 81       	ld	r24, Z
    307e:	41 e0       	ldi	r20, 0x01	; 1
    3080:	68 2f       	mov	r22, r24
    3082:	83 e0       	ldi	r24, 0x03	; 3
    3084:	0e 94 4e 05 	call	0xa9c	; 0xa9c <GPIO_SetPinValue>

00003088 <.LM36>:
    3088:	8a 81       	ldd	r24, Y+2	; 0x02
    308a:	8f 5f       	subi	r24, 0xFF	; 255
    308c:	8a 83       	std	Y+2, r24	; 0x02

0000308e <.L3>:
    308e:	8a 81       	ldd	r24, Y+2	; 0x02
    3090:	83 30       	cpi	r24, 0x03	; 3
    3092:	09 f0       	breq	.+2      	; 0x3096 <L0^A>

00003094 <L0^A>:
    3094:	08 f4       	brcc	.+2      	; 0x3098 <.LM38>

00003096 <L0^A>:
    3096:	a5 cf       	rjmp	.-182    	; 0x2fe2 <.L10>

00003098 <.LM38>:
    3098:	8c 81       	ldd	r24, Y+4	; 0x04

0000309a <.L8>:
    309a:	0f 90       	pop	r0
    309c:	0f 90       	pop	r0
    309e:	0f 90       	pop	r0
    30a0:	0f 90       	pop	r0
    30a2:	df 91       	pop	r29
    30a4:	cf 91       	pop	r28
    30a6:	08 95       	ret

000030a8 <main>:
    30a8:	cf 93       	push	r28
    30aa:	df 93       	push	r29
    30ac:	cd b7       	in	r28, 0x3d	; 61
    30ae:	de b7       	in	r29, 0x3e	; 62

000030b0 <.LM1>:
    30b0:	0e 94 8d 02 	call	0x51a	; 0x51a <SPI_InitMaster>

000030b4 <.L2>:
    30b4:	8d e6       	ldi	r24, 0x6D	; 109
    30b6:	0e 94 65 03 	call	0x6ca	; 0x6ca <SPI_TransferByte>
    30ba:	fc cf       	rjmp	.-8      	; 0x30b4 <.L2>

000030bc <__udivmodsi4>:
    30bc:	a1 e2       	ldi	r26, 0x21	; 33

000030be <.Loc.1>:
    30be:	1a 2e       	mov	r1, r26

000030c0 <.Loc.2>:
    30c0:	aa 1b       	sub	r26, r26

000030c2 <.Loc.3>:
    30c2:	bb 1b       	sub	r27, r27

000030c4 <.Loc.4>:
    30c4:	fd 01       	movw	r30, r26

000030c6 <.Loc.5>:
    30c6:	0d c0       	rjmp	.+26     	; 0x30e2 <__udivmodsi4_ep>

000030c8 <__udivmodsi4_loop>:
    30c8:	aa 1f       	adc	r26, r26

000030ca <.Loc.7>:
    30ca:	bb 1f       	adc	r27, r27

000030cc <.Loc.8>:
    30cc:	ee 1f       	adc	r30, r30

000030ce <.Loc.9>:
    30ce:	ff 1f       	adc	r31, r31

000030d0 <.Loc.10>:
    30d0:	a2 17       	cp	r26, r18

000030d2 <.Loc.11>:
    30d2:	b3 07       	cpc	r27, r19

000030d4 <.Loc.12>:
    30d4:	e4 07       	cpc	r30, r20

000030d6 <.Loc.13>:
    30d6:	f5 07       	cpc	r31, r21

000030d8 <.Loc.14>:
    30d8:	20 f0       	brcs	.+8      	; 0x30e2 <__udivmodsi4_ep>

000030da <.Loc.15>:
    30da:	a2 1b       	sub	r26, r18

000030dc <.Loc.16>:
    30dc:	b3 0b       	sbc	r27, r19

000030de <.Loc.17>:
    30de:	e4 0b       	sbc	r30, r20

000030e0 <.Loc.18>:
    30e0:	f5 0b       	sbc	r31, r21

000030e2 <__udivmodsi4_ep>:
    30e2:	66 1f       	adc	r22, r22

000030e4 <.Loc.20>:
    30e4:	77 1f       	adc	r23, r23

000030e6 <.Loc.21>:
    30e6:	88 1f       	adc	r24, r24

000030e8 <.Loc.22>:
    30e8:	99 1f       	adc	r25, r25

000030ea <.Loc.23>:
    30ea:	1a 94       	dec	r1

000030ec <.Loc.24>:
    30ec:	69 f7       	brne	.-38     	; 0x30c8 <__udivmodsi4_loop>

000030ee <.Loc.25>:
    30ee:	60 95       	com	r22

000030f0 <.Loc.26>:
    30f0:	70 95       	com	r23

000030f2 <.Loc.27>:
    30f2:	80 95       	com	r24

000030f4 <.Loc.28>:
    30f4:	90 95       	com	r25

000030f6 <.Loc.29>:
    30f6:	9b 01       	movw	r18, r22

000030f8 <.Loc.30>:
    30f8:	ac 01       	movw	r20, r24

000030fa <.Loc.31>:
    30fa:	bd 01       	movw	r22, r26

000030fc <.Loc.32>:
    30fc:	cf 01       	movw	r24, r30

000030fe <.Loc.33>:
    30fe:	08 95       	ret

00003100 <__muluhisi3>:
    3100:	0e 94 8b 18 	call	0x3116	; 0x3116 <__umulhisi3>

00003104 <.Loc.1>:
    3104:	a5 9f       	mul	r26, r21

00003106 <.Loc.2>:
    3106:	90 0d       	add	r25, r0

00003108 <.Loc.3>:
    3108:	b4 9f       	mul	r27, r20

0000310a <.Loc.4>:
    310a:	90 0d       	add	r25, r0

0000310c <.Loc.5>:
    310c:	a4 9f       	mul	r26, r20

0000310e <.Loc.6>:
    310e:	80 0d       	add	r24, r0

00003110 <.Loc.7>:
    3110:	91 1d       	adc	r25, r1

00003112 <.Loc.8>:
    3112:	11 24       	eor	r1, r1

00003114 <.Loc.9>:
    3114:	08 95       	ret

00003116 <__umulhisi3>:
    3116:	a2 9f       	mul	r26, r18

00003118 <.Loc.1>:
    3118:	b0 01       	movw	r22, r0

0000311a <.Loc.2>:
    311a:	b3 9f       	mul	r27, r19

0000311c <.Loc.3>:
    311c:	c0 01       	movw	r24, r0

0000311e <.Loc.4>:
    311e:	a3 9f       	mul	r26, r19

00003120 <.Loc.5>:
    3120:	70 0d       	add	r23, r0

00003122 <.Loc.6>:
    3122:	81 1d       	adc	r24, r1

00003124 <.Loc.7>:
    3124:	11 24       	eor	r1, r1

00003126 <.Loc.8>:
    3126:	91 1d       	adc	r25, r1

00003128 <.Loc.9>:
    3128:	b2 9f       	mul	r27, r18

0000312a <.Loc.10>:
    312a:	70 0d       	add	r23, r0

0000312c <.Loc.11>:
    312c:	81 1d       	adc	r24, r1

0000312e <.Loc.12>:
    312e:	11 24       	eor	r1, r1

00003130 <.Loc.13>:
    3130:	91 1d       	adc	r25, r1

00003132 <.Loc.14>:
    3132:	08 95       	ret

00003134 <__cmpsf2>:
    3134:	0e 94 40 19 	call	0x3280	; 0x3280 <__fp_cmp>
    3138:	08 f4       	brcc	.+2      	; 0x313c <.L1^B1>
    313a:	81 e0       	ldi	r24, 0x01	; 1

0000313c <.L1^B1>:
    313c:	08 95       	ret

0000313e <__divsf3>:
    313e:	0e 94 b3 18 	call	0x3166	; 0x3166 <__divsf3x>
    3142:	0c 94 7b 19 	jmp	0x32f6	; 0x32f6 <__fp_round>

00003146 <.L^B1>:
    3146:	0e 94 74 19 	call	0x32e8	; 0x32e8 <__fp_pscB>
    314a:	58 f0       	brcs	.+22     	; 0x3162 <.L_nan>
    314c:	0e 94 6d 19 	call	0x32da	; 0x32da <__fp_pscA>
    3150:	40 f0       	brcs	.+16     	; 0x3162 <.L_nan>
    3152:	29 f4       	brne	.+10     	; 0x315e <.L_zr>
    3154:	5f 3f       	cpi	r21, 0xFF	; 255
    3156:	29 f0       	breq	.+10     	; 0x3162 <.L_nan>

00003158 <.L_inf>:
    3158:	0c 94 64 19 	jmp	0x32c8	; 0x32c8 <__fp_inf>

0000315c <.L1^B1>:
    315c:	51 11       	cpse	r21, r1

0000315e <.L_zr>:
    315e:	0c 94 af 19 	jmp	0x335e	; 0x335e <__fp_szero>

00003162 <.L_nan>:
    3162:	0c 94 6a 19 	jmp	0x32d4	; 0x32d4 <__fp_nan>

00003166 <__divsf3x>:
    3166:	0e 94 8c 19 	call	0x3318	; 0x3318 <__fp_split3>
    316a:	68 f3       	brcs	.-38     	; 0x3146 <.L^B1>

0000316c <__divsf3_pse>:
    316c:	99 23       	and	r25, r25
    316e:	b1 f3       	breq	.-20     	; 0x315c <.L1^B1>
    3170:	55 23       	and	r21, r21
    3172:	91 f3       	breq	.-28     	; 0x3158 <.L_inf>
    3174:	95 1b       	sub	r25, r21
    3176:	55 0b       	sbc	r21, r21
    3178:	bb 27       	eor	r27, r27
    317a:	aa 27       	eor	r26, r26

0000317c <.L2^B1>:
    317c:	62 17       	cp	r22, r18
    317e:	73 07       	cpc	r23, r19
    3180:	84 07       	cpc	r24, r20
    3182:	38 f0       	brcs	.+14     	; 0x3192 <.L3^B1>
    3184:	9f 5f       	subi	r25, 0xFF	; 255
    3186:	5f 4f       	sbci	r21, 0xFF	; 255
    3188:	22 0f       	add	r18, r18
    318a:	33 1f       	adc	r19, r19
    318c:	44 1f       	adc	r20, r20
    318e:	aa 1f       	adc	r26, r26
    3190:	a9 f3       	breq	.-22     	; 0x317c <.L2^B1>

00003192 <.L3^B1>:
    3192:	35 d0       	rcall	.+106    	; 0x31fe <.L_div>
    3194:	0e 2e       	mov	r0, r30
    3196:	3a f0       	brmi	.+14     	; 0x31a6 <.L5^B1>

00003198 <.L4^B1>:
    3198:	e0 e8       	ldi	r30, 0x80	; 128
    319a:	32 d0       	rcall	.+100    	; 0x3200 <.L_div1>
    319c:	91 50       	subi	r25, 0x01	; 1
    319e:	50 40       	sbci	r21, 0x00	; 0
    31a0:	e6 95       	lsr	r30
    31a2:	00 1c       	adc	r0, r0
    31a4:	ca f7       	brpl	.-14     	; 0x3198 <.L4^B1>

000031a6 <.L5^B1>:
    31a6:	2b d0       	rcall	.+86     	; 0x31fe <.L_div>
    31a8:	fe 2f       	mov	r31, r30
    31aa:	29 d0       	rcall	.+82     	; 0x31fe <.L_div>
    31ac:	66 0f       	add	r22, r22
    31ae:	77 1f       	adc	r23, r23
    31b0:	88 1f       	adc	r24, r24
    31b2:	bb 1f       	adc	r27, r27
    31b4:	26 17       	cp	r18, r22
    31b6:	37 07       	cpc	r19, r23
    31b8:	48 07       	cpc	r20, r24
    31ba:	ab 07       	cpc	r26, r27
    31bc:	b0 e8       	ldi	r27, 0x80	; 128
    31be:	09 f0       	breq	.+2      	; 0x31c2 <.L4^B2>
    31c0:	bb 0b       	sbc	r27, r27

000031c2 <.L4^B2>:
    31c2:	80 2d       	mov	r24, r0
    31c4:	bf 01       	movw	r22, r30
    31c6:	ff 27       	eor	r31, r31
    31c8:	93 58       	subi	r25, 0x83	; 131
    31ca:	5f 4f       	sbci	r21, 0xFF	; 255
    31cc:	3a f0       	brmi	.+14     	; 0x31dc <.L13^B1>
    31ce:	9e 3f       	cpi	r25, 0xFE	; 254
    31d0:	51 05       	cpc	r21, r1
    31d2:	78 f0       	brcs	.+30     	; 0x31f2 <.L15^B1>
    31d4:	0c 94 64 19 	jmp	0x32c8	; 0x32c8 <__fp_inf>

000031d8 <.L12^B1>:
    31d8:	0c 94 af 19 	jmp	0x335e	; 0x335e <__fp_szero>

000031dc <.L13^B1>:
    31dc:	5f 3f       	cpi	r21, 0xFF	; 255
    31de:	e4 f3       	brlt	.-8      	; 0x31d8 <.L12^B1>
    31e0:	98 3e       	cpi	r25, 0xE8	; 232
    31e2:	d4 f3       	brlt	.-12     	; 0x31d8 <.L12^B1>

000031e4 <.L14^B1>:
    31e4:	86 95       	lsr	r24
    31e6:	77 95       	ror	r23
    31e8:	67 95       	ror	r22
    31ea:	b7 95       	ror	r27
    31ec:	f7 95       	ror	r31
    31ee:	9f 5f       	subi	r25, 0xFF	; 255
    31f0:	c9 f7       	brne	.-14     	; 0x31e4 <.L14^B1>

000031f2 <.L15^B1>:
    31f2:	88 0f       	add	r24, r24
    31f4:	91 1d       	adc	r25, r1
    31f6:	96 95       	lsr	r25
    31f8:	87 95       	ror	r24
    31fa:	97 f9       	bld	r25, 7
    31fc:	08 95       	ret

000031fe <.L_div>:
    31fe:	e1 e0       	ldi	r30, 0x01	; 1

00003200 <.L_div1>:
    3200:	66 0f       	add	r22, r22
    3202:	77 1f       	adc	r23, r23
    3204:	88 1f       	adc	r24, r24
    3206:	bb 1f       	adc	r27, r27
    3208:	62 17       	cp	r22, r18
    320a:	73 07       	cpc	r23, r19
    320c:	84 07       	cpc	r24, r20
    320e:	ba 07       	cpc	r27, r26
    3210:	20 f0       	brcs	.+8      	; 0x321a <.L2^B2>
    3212:	62 1b       	sub	r22, r18
    3214:	73 0b       	sbc	r23, r19
    3216:	84 0b       	sbc	r24, r20
    3218:	ba 0b       	sbc	r27, r26

0000321a <.L2^B2>:
    321a:	ee 1f       	adc	r30, r30
    321c:	88 f7       	brcc	.-30     	; 0x3200 <.L_div1>
    321e:	e0 95       	com	r30
    3220:	08 95       	ret

00003222 <__fixunssfsi>:
    3222:	0e 94 94 19 	call	0x3328	; 0x3328 <__fp_splitA>
    3226:	88 f0       	brcs	.+34     	; 0x324a <.L_err>
    3228:	9f 57       	subi	r25, 0x7F	; 127
    322a:	98 f0       	brcs	.+38     	; 0x3252 <.L_zr>
    322c:	b9 2f       	mov	r27, r25
    322e:	99 27       	eor	r25, r25
    3230:	b7 51       	subi	r27, 0x17	; 23
    3232:	b0 f0       	brcs	.+44     	; 0x3260 <.L4^B1>
    3234:	e1 f0       	breq	.+56     	; 0x326e <.L_sign>

00003236 <.L1^B1>:
    3236:	66 0f       	add	r22, r22
    3238:	77 1f       	adc	r23, r23
    323a:	88 1f       	adc	r24, r24
    323c:	99 1f       	adc	r25, r25
    323e:	1a f0       	brmi	.+6      	; 0x3246 <.L2^B1>
    3240:	ba 95       	dec	r27
    3242:	c9 f7       	brne	.-14     	; 0x3236 <.L1^B1>
    3244:	14 c0       	rjmp	.+40     	; 0x326e <.L_sign>

00003246 <.L2^B1>:
    3246:	b1 30       	cpi	r27, 0x01	; 1
    3248:	91 f0       	breq	.+36     	; 0x326e <.L_sign>

0000324a <.L_err>:
    324a:	0e 94 ae 19 	call	0x335c	; 0x335c <__fp_zero>
    324e:	b1 e0       	ldi	r27, 0x01	; 1
    3250:	08 95       	ret

00003252 <.L_zr>:
    3252:	0c 94 ae 19 	jmp	0x335c	; 0x335c <__fp_zero>

00003256 <.L3^B1>:
    3256:	67 2f       	mov	r22, r23
    3258:	78 2f       	mov	r23, r24
    325a:	88 27       	eor	r24, r24
    325c:	b8 5f       	subi	r27, 0xF8	; 248
    325e:	39 f0       	breq	.+14     	; 0x326e <.L_sign>

00003260 <.L4^B1>:
    3260:	b9 3f       	cpi	r27, 0xF9	; 249
    3262:	cc f3       	brlt	.-14     	; 0x3256 <.L3^B1>

00003264 <.L5^B1>:
    3264:	86 95       	lsr	r24
    3266:	77 95       	ror	r23
    3268:	67 95       	ror	r22
    326a:	b3 95       	inc	r27
    326c:	d9 f7       	brne	.-10     	; 0x3264 <.L5^B1>

0000326e <.L_sign>:
    326e:	3e f4       	brtc	.+14     	; 0x327e <.L6^B1>
    3270:	90 95       	com	r25
    3272:	80 95       	com	r24
    3274:	70 95       	com	r23
    3276:	61 95       	neg	r22
    3278:	7f 4f       	sbci	r23, 0xFF	; 255
    327a:	8f 4f       	sbci	r24, 0xFF	; 255
    327c:	9f 4f       	sbci	r25, 0xFF	; 255

0000327e <.L6^B1>:
    327e:	08 95       	ret

00003280 <__fp_cmp>:
    3280:	99 0f       	add	r25, r25
    3282:	00 08       	sbc	r0, r0
    3284:	55 0f       	add	r21, r21
    3286:	aa 0b       	sbc	r26, r26
    3288:	e0 e8       	ldi	r30, 0x80	; 128
    328a:	fe ef       	ldi	r31, 0xFE	; 254
    328c:	16 16       	cp	r1, r22
    328e:	17 06       	cpc	r1, r23
    3290:	e8 07       	cpc	r30, r24
    3292:	f9 07       	cpc	r31, r25
    3294:	c0 f0       	brcs	.+48     	; 0x32c6 <.L9^B1>
    3296:	12 16       	cp	r1, r18
    3298:	13 06       	cpc	r1, r19
    329a:	e4 07       	cpc	r30, r20
    329c:	f5 07       	cpc	r31, r21
    329e:	98 f0       	brcs	.+38     	; 0x32c6 <.L9^B1>
    32a0:	62 1b       	sub	r22, r18
    32a2:	73 0b       	sbc	r23, r19
    32a4:	84 0b       	sbc	r24, r20
    32a6:	95 0b       	sbc	r25, r21
    32a8:	39 f4       	brne	.+14     	; 0x32b8 <.L1^B1>
    32aa:	0a 26       	eor	r0, r26
    32ac:	61 f0       	breq	.+24     	; 0x32c6 <.L9^B1>
    32ae:	23 2b       	or	r18, r19
    32b0:	24 2b       	or	r18, r20
    32b2:	25 2b       	or	r18, r21
    32b4:	21 f4       	brne	.+8      	; 0x32be <.L2^B1>
    32b6:	08 95       	ret

000032b8 <.L1^B1>:
    32b8:	0a 26       	eor	r0, r26
    32ba:	09 f4       	brne	.+2      	; 0x32be <.L2^B1>
    32bc:	a1 40       	sbci	r26, 0x01	; 1

000032be <.L2^B1>:
    32be:	a6 95       	lsr	r26
    32c0:	8f ef       	ldi	r24, 0xFF	; 255
    32c2:	81 1d       	adc	r24, r1
    32c4:	81 1d       	adc	r24, r1

000032c6 <.L9^B1>:
    32c6:	08 95       	ret

000032c8 <__fp_inf>:
    32c8:	97 f9       	bld	r25, 7
    32ca:	9f 67       	ori	r25, 0x7F	; 127
    32cc:	80 e8       	ldi	r24, 0x80	; 128
    32ce:	70 e0       	ldi	r23, 0x00	; 0
    32d0:	60 e0       	ldi	r22, 0x00	; 0
    32d2:	08 95       	ret

000032d4 <__fp_nan>:
    32d4:	9f ef       	ldi	r25, 0xFF	; 255
    32d6:	80 ec       	ldi	r24, 0xC0	; 192
    32d8:	08 95       	ret

000032da <__fp_pscA>:
    32da:	00 24       	eor	r0, r0
    32dc:	0a 94       	dec	r0
    32de:	16 16       	cp	r1, r22
    32e0:	17 06       	cpc	r1, r23
    32e2:	18 06       	cpc	r1, r24
    32e4:	09 06       	cpc	r0, r25
    32e6:	08 95       	ret

000032e8 <__fp_pscB>:
    32e8:	00 24       	eor	r0, r0
    32ea:	0a 94       	dec	r0
    32ec:	12 16       	cp	r1, r18
    32ee:	13 06       	cpc	r1, r19
    32f0:	14 06       	cpc	r1, r20
    32f2:	05 06       	cpc	r0, r21
    32f4:	08 95       	ret

000032f6 <__fp_round>:
    32f6:	09 2e       	mov	r0, r25
    32f8:	03 94       	inc	r0
    32fa:	00 0c       	add	r0, r0
    32fc:	11 f4       	brne	.+4      	; 0x3302 <.L1^B1>
    32fe:	88 23       	and	r24, r24
    3300:	52 f0       	brmi	.+20     	; 0x3316 <.L3^B1>

00003302 <.L1^B1>:
    3302:	bb 0f       	add	r27, r27
    3304:	40 f4       	brcc	.+16     	; 0x3316 <.L3^B1>
    3306:	bf 2b       	or	r27, r31
    3308:	11 f4       	brne	.+4      	; 0x330e <.L2^B1>
    330a:	60 ff       	sbrs	r22, 0
    330c:	04 c0       	rjmp	.+8      	; 0x3316 <.L3^B1>

0000330e <.L2^B1>:
    330e:	6f 5f       	subi	r22, 0xFF	; 255
    3310:	7f 4f       	sbci	r23, 0xFF	; 255
    3312:	8f 4f       	sbci	r24, 0xFF	; 255
    3314:	9f 4f       	sbci	r25, 0xFF	; 255

00003316 <.L3^B1>:
    3316:	08 95       	ret

00003318 <__fp_split3>:
    3318:	57 fd       	sbrc	r21, 7
    331a:	90 58       	subi	r25, 0x80	; 128
    331c:	44 0f       	add	r20, r20
    331e:	55 1f       	adc	r21, r21
    3320:	59 f0       	breq	.+22     	; 0x3338 <.L4^B1>
    3322:	5f 3f       	cpi	r21, 0xFF	; 255
    3324:	71 f0       	breq	.+28     	; 0x3342 <.L5^B1>

00003326 <.L1^B1>:
    3326:	47 95       	ror	r20

00003328 <__fp_splitA>:
    3328:	88 0f       	add	r24, r24
    332a:	97 fb       	bst	r25, 7
    332c:	99 1f       	adc	r25, r25
    332e:	61 f0       	breq	.+24     	; 0x3348 <.L6^B1>
    3330:	9f 3f       	cpi	r25, 0xFF	; 255
    3332:	79 f0       	breq	.+30     	; 0x3352 <.L7^B1>

00003334 <.L3^B1>:
    3334:	87 95       	ror	r24
    3336:	08 95       	ret

00003338 <.L4^B1>:
    3338:	12 16       	cp	r1, r18
    333a:	13 06       	cpc	r1, r19
    333c:	14 06       	cpc	r1, r20
    333e:	55 1f       	adc	r21, r21
    3340:	f2 cf       	rjmp	.-28     	; 0x3326 <.L1^B1>

00003342 <.L5^B1>:
    3342:	46 95       	lsr	r20
    3344:	f1 df       	rcall	.-30     	; 0x3328 <__fp_splitA>
    3346:	08 c0       	rjmp	.+16     	; 0x3358 <.L8^B1>

00003348 <.L6^B1>:
    3348:	16 16       	cp	r1, r22
    334a:	17 06       	cpc	r1, r23
    334c:	18 06       	cpc	r1, r24
    334e:	99 1f       	adc	r25, r25
    3350:	f1 cf       	rjmp	.-30     	; 0x3334 <.L3^B1>

00003352 <.L7^B1>:
    3352:	86 95       	lsr	r24
    3354:	71 05       	cpc	r23, r1
    3356:	61 05       	cpc	r22, r1

00003358 <.L8^B1>:
    3358:	08 94       	sec
    335a:	08 95       	ret

0000335c <__fp_zero>:
    335c:	e8 94       	clt

0000335e <__fp_szero>:
    335e:	bb 27       	eor	r27, r27
    3360:	66 27       	eor	r22, r22
    3362:	77 27       	eor	r23, r23
    3364:	cb 01       	movw	r24, r22
    3366:	97 f9       	bld	r25, 7
    3368:	08 95       	ret

0000336a <__gesf2>:
    336a:	0e 94 40 19 	call	0x3280	; 0x3280 <__fp_cmp>
    336e:	08 f4       	brcc	.+2      	; 0x3372 <.L1^B1>
    3370:	8f ef       	ldi	r24, 0xFF	; 255

00003372 <.L1^B1>:
    3372:	08 95       	ret

00003374 <__mulsf3>:
    3374:	0e 94 cd 19 	call	0x339a	; 0x339a <__mulsf3x>
    3378:	0c 94 7b 19 	jmp	0x32f6	; 0x32f6 <__fp_round>

0000337c <.L^B1>:
    337c:	0e 94 6d 19 	call	0x32da	; 0x32da <__fp_pscA>
    3380:	38 f0       	brcs	.+14     	; 0x3390 <.L1^B1>
    3382:	0e 94 74 19 	call	0x32e8	; 0x32e8 <__fp_pscB>
    3386:	20 f0       	brcs	.+8      	; 0x3390 <.L1^B1>
    3388:	95 23       	and	r25, r21
    338a:	11 f0       	breq	.+4      	; 0x3390 <.L1^B1>
    338c:	0c 94 64 19 	jmp	0x32c8	; 0x32c8 <__fp_inf>

00003390 <.L1^B1>:
    3390:	0c 94 6a 19 	jmp	0x32d4	; 0x32d4 <__fp_nan>

00003394 <.L2^B1>:
    3394:	11 24       	eor	r1, r1
    3396:	0c 94 af 19 	jmp	0x335e	; 0x335e <__fp_szero>

0000339a <__mulsf3x>:
    339a:	0e 94 8c 19 	call	0x3318	; 0x3318 <__fp_split3>
    339e:	70 f3       	brcs	.-36     	; 0x337c <.L^B1>

000033a0 <__mulsf3_pse>:
    33a0:	95 9f       	mul	r25, r21
    33a2:	c1 f3       	breq	.-16     	; 0x3394 <.L2^B1>
    33a4:	95 0f       	add	r25, r21
    33a6:	50 e0       	ldi	r21, 0x00	; 0
    33a8:	55 1f       	adc	r21, r21
    33aa:	62 9f       	mul	r22, r18
    33ac:	f0 01       	movw	r30, r0
    33ae:	72 9f       	mul	r23, r18
    33b0:	bb 27       	eor	r27, r27
    33b2:	f0 0d       	add	r31, r0
    33b4:	b1 1d       	adc	r27, r1
    33b6:	63 9f       	mul	r22, r19
    33b8:	aa 27       	eor	r26, r26
    33ba:	f0 0d       	add	r31, r0
    33bc:	b1 1d       	adc	r27, r1
    33be:	aa 1f       	adc	r26, r26
    33c0:	64 9f       	mul	r22, r20
    33c2:	66 27       	eor	r22, r22
    33c4:	b0 0d       	add	r27, r0
    33c6:	a1 1d       	adc	r26, r1
    33c8:	66 1f       	adc	r22, r22
    33ca:	82 9f       	mul	r24, r18
    33cc:	22 27       	eor	r18, r18
    33ce:	b0 0d       	add	r27, r0
    33d0:	a1 1d       	adc	r26, r1
    33d2:	62 1f       	adc	r22, r18
    33d4:	73 9f       	mul	r23, r19
    33d6:	b0 0d       	add	r27, r0
    33d8:	a1 1d       	adc	r26, r1
    33da:	62 1f       	adc	r22, r18
    33dc:	83 9f       	mul	r24, r19
    33de:	a0 0d       	add	r26, r0
    33e0:	61 1d       	adc	r22, r1
    33e2:	22 1f       	adc	r18, r18
    33e4:	74 9f       	mul	r23, r20
    33e6:	33 27       	eor	r19, r19
    33e8:	a0 0d       	add	r26, r0
    33ea:	61 1d       	adc	r22, r1
    33ec:	23 1f       	adc	r18, r19
    33ee:	84 9f       	mul	r24, r20
    33f0:	60 0d       	add	r22, r0
    33f2:	21 1d       	adc	r18, r1
    33f4:	82 2f       	mov	r24, r18
    33f6:	76 2f       	mov	r23, r22
    33f8:	6a 2f       	mov	r22, r26
    33fa:	11 24       	eor	r1, r1
    33fc:	9f 57       	subi	r25, 0x7F	; 127
    33fe:	50 40       	sbci	r21, 0x00	; 0
    3400:	9a f0       	brmi	.+38     	; 0x3428 <.L13^B1>
    3402:	f1 f0       	breq	.+60     	; 0x3440 <.L15^B1>

00003404 <.L10^B1>:
    3404:	88 23       	and	r24, r24
    3406:	4a f0       	brmi	.+18     	; 0x341a <.L11^B1>
    3408:	ee 0f       	add	r30, r30
    340a:	ff 1f       	adc	r31, r31
    340c:	bb 1f       	adc	r27, r27
    340e:	66 1f       	adc	r22, r22
    3410:	77 1f       	adc	r23, r23
    3412:	88 1f       	adc	r24, r24
    3414:	91 50       	subi	r25, 0x01	; 1
    3416:	50 40       	sbci	r21, 0x00	; 0
    3418:	a9 f7       	brne	.-22     	; 0x3404 <.L10^B1>

0000341a <.L11^B1>:
    341a:	9e 3f       	cpi	r25, 0xFE	; 254
    341c:	51 05       	cpc	r21, r1
    341e:	80 f0       	brcs	.+32     	; 0x3440 <.L15^B1>
    3420:	0c 94 64 19 	jmp	0x32c8	; 0x32c8 <__fp_inf>

00003424 <.L12^B1>:
    3424:	0c 94 af 19 	jmp	0x335e	; 0x335e <__fp_szero>

00003428 <.L13^B1>:
    3428:	5f 3f       	cpi	r21, 0xFF	; 255
    342a:	e4 f3       	brlt	.-8      	; 0x3424 <.L12^B1>
    342c:	98 3e       	cpi	r25, 0xE8	; 232
    342e:	d4 f3       	brlt	.-12     	; 0x3424 <.L12^B1>

00003430 <.L14^B1>:
    3430:	86 95       	lsr	r24
    3432:	77 95       	ror	r23
    3434:	67 95       	ror	r22
    3436:	b7 95       	ror	r27
    3438:	f7 95       	ror	r31
    343a:	e7 95       	ror	r30
    343c:	9f 5f       	subi	r25, 0xFF	; 255
    343e:	c1 f7       	brne	.-16     	; 0x3430 <.L14^B1>

00003440 <.L15^B1>:
    3440:	fe 2b       	or	r31, r30
    3442:	88 0f       	add	r24, r24
    3444:	91 1d       	adc	r25, r1
    3446:	96 95       	lsr	r25
    3448:	87 95       	ror	r24
    344a:	97 f9       	bld	r25, 7
    344c:	08 95       	ret

0000344e <itoa>:
    344e:	45 32       	cpi	r20, 0x25	; 37
    3450:	51 05       	cpc	r21, r1
    3452:	20 f4       	brcc	.+8      	; 0x345c <.L1^B1>
    3454:	42 30       	cpi	r20, 0x02	; 2
    3456:	10 f0       	brcs	.+4      	; 0x345c <.L1^B1>
    3458:	0c 94 32 1a 	jmp	0x3464	; 0x3464 <__itoa_ncheck>

0000345c <.L1^B1>:
    345c:	fb 01       	movw	r30, r22
    345e:	10 82       	st	Z, r1
    3460:	cb 01       	movw	r24, r22
    3462:	08 95       	ret

00003464 <__itoa_ncheck>:
    3464:	bb 27       	eor	r27, r27
    3466:	4a 30       	cpi	r20, 0x0A	; 10
    3468:	31 f4       	brne	.+12     	; 0x3476 <.L1^B1>
    346a:	99 23       	and	r25, r25
    346c:	22 f4       	brpl	.+8      	; 0x3476 <.L1^B1>
    346e:	bd e2       	ldi	r27, 0x2D	; 45
    3470:	90 95       	com	r25
    3472:	81 95       	neg	r24
    3474:	9f 4f       	sbci	r25, 0xFF	; 255

00003476 <.L1^B1>:
    3476:	0c 94 3e 1a 	jmp	0x347c	; 0x347c <__utoa_common>

0000347a <__utoa_ncheck>:
    347a:	bb 27       	eor	r27, r27

0000347c <__utoa_common>:
    347c:	fb 01       	movw	r30, r22
    347e:	55 27       	eor	r21, r21

00003480 <.L1^B1>:
    3480:	aa 27       	eor	r26, r26

00003482 <.L2^B1>:
    3482:	88 0f       	add	r24, r24
    3484:	99 1f       	adc	r25, r25
    3486:	aa 1f       	adc	r26, r26
    3488:	a4 17       	cp	r26, r20
    348a:	10 f0       	brcs	.+4      	; 0x3490 <.L3^B1>
    348c:	a4 1b       	sub	r26, r20
    348e:	83 95       	inc	r24

00003490 <.L3^B1>:
    3490:	50 51       	subi	r21, 0x10	; 16
    3492:	b9 f7       	brne	.-18     	; 0x3482 <.L2^B1>
    3494:	a0 5d       	subi	r26, 0xD0	; 208
    3496:	aa 33       	cpi	r26, 0x3A	; 58
    3498:	08 f0       	brcs	.+2      	; 0x349c <.L4^B1>
    349a:	a9 5d       	subi	r26, 0xD9	; 217

0000349c <.L4^B1>:
    349c:	a1 93       	st	Z+, r26
    349e:	00 97       	sbiw	r24, 0x00	; 0
    34a0:	79 f7       	brne	.-34     	; 0x3480 <.L1^B1>
    34a2:	b1 11       	cpse	r27, r1
    34a4:	b1 93       	st	Z+, r27
    34a6:	11 92       	st	Z+, r1
    34a8:	cb 01       	movw	r24, r22
    34aa:	0c 94 57 1a 	jmp	0x34ae	; 0x34ae <strrev>

000034ae <strrev>:
    34ae:	dc 01       	movw	r26, r24
    34b0:	fc 01       	movw	r30, r24

000034b2 <.L1^B1>:
    34b2:	67 2f       	mov	r22, r23
    34b4:	71 91       	ld	r23, Z+
    34b6:	77 23       	and	r23, r23
    34b8:	e1 f7       	brne	.-8      	; 0x34b2 <.L1^B1>
    34ba:	32 97       	sbiw	r30, 0x02	; 2
    34bc:	04 c0       	rjmp	.+8      	; 0x34c6 <.L3^B1>

000034be <.L2^B1>:
    34be:	7c 91       	ld	r23, X
    34c0:	6d 93       	st	X+, r22
    34c2:	70 83       	st	Z, r23
    34c4:	62 91       	ld	r22, -Z

000034c6 <.L3^B1>:
    34c6:	ae 17       	cp	r26, r30
    34c8:	bf 07       	cpc	r27, r31
    34ca:	c8 f3       	brcs	.-14     	; 0x34be <.L2^B1>
    34cc:	08 95       	ret

000034ce <_exit>:
    34ce:	f8 94       	cli

000034d0 <__stop_program>:
    34d0:	ff cf       	rjmp	.-2      	; 0x34d0 <__stop_program>
